 PhysX3CookingDEBUG_x64

 Timestamp is 5998640e (Sat Aug 19 17:15:10 2017)

 Preferred load address is 0000000180000000

 Start         Length     Name                   Class
 0001:00000000 00005c30H .text$di                CODE
 0001:00005c30 0006cd20H .text$mn                CODE
 0001:00072950 00001100H .text$mn$00             CODE
 0001:00073a50 0000115fH .text$x                 CODE
 0002:00000000 00000110H .CRT$XCA                DATA
 0002:00000110 00000320H .CRT$XCU                DATA
 0002:00000430 00000110H .CRT$XCZ                DATA
 0002:00000540 00000110H .CRT$XIA                DATA
 0002:00000650 00000110H .CRT$XIZ                DATA
 0002:00000760 00000110H .CRT$XPA                DATA
 0002:00000870 00000110H .CRT$XPZ                DATA
 0002:00000980 00000110H .CRT$XTA                DATA
 0002:00000a90 00000110H .CRT$XTZ                DATA
 0002:00000ba0 00005a40H .rdata                  DATA
 0002:000065e0 00000348H .rdata$r                DATA
 0002:00006928 000001b8H .rdata$zzzdbg           DATA
 0002:00006ae0 00000110H .rtc$IAA                DATA
 0002:00006bf0 00000250H .rtc$IMZ                DATA
 0002:00006e40 00000110H .rtc$IZZ                DATA
 0002:00006f50 00000110H .rtc$TAA                DATA
 0002:00007060 00000250H .rtc$TMZ                DATA
 0002:000072b0 00000110H .rtc$TZZ                DATA
 0002:000073c0 00002df0H .xdata                  DATA
 0002:0000a1b0 00000210H .xdata$x                DATA
 0002:0000a3c0 000001a0H .edata                  DATA
 0003:00000000 00000198H .data                   DATA
 0003:00000198 00000638H .data$r                 DATA
 0003:000007d0 00000d09H .bss                    DATA
 0004:00000000 00003cccH .pdata                  DATA
 0005:00000000 000003f0H .idata$5                DATA
 0005:000003f0 0000003cH .idata$2                DATA
 0005:0000042c 00000014H .idata$3                DATA
 0005:00000440 000003f0H .idata$4                DATA
 0005:00000830 0000073fH .idata$6                DATA
 0006:00000000 00000040H .didat$2                DATA
 0006:00000040 00000020H .didat$3                DATA
 0006:00000060 000002a0H .didat$4                DATA
 0006:00000300 000002a0H .didat$5                DATA
 0006:000005a0 00000c40H .didat$6                DATA
 0006:000011e0 000002dbH .didat$7                DATA
 0007:00000000 0000013fH .00cfg                  DATA
 0008:00000000 000001c0H .rsrc$01                DATA
 0008:000001c0 000006a9H .rsrc$02                DATA

  Address         Publics by Value              Rva+Base               Lib:Object

 0000:00000000       __guard_iat_table          0000000000000000     <absolute>
 0000:00000000       __guard_iat_count          0000000000000000     <absolute>
 0000:00000000       __guard_fids_count         0000000000000000     <absolute>
 0000:00000000       __enclave_config           0000000000000000     <absolute>
 0000:00000000       __hybrid_code_map_count    0000000000000000     <absolute>
 0000:00000000       __guard_longjmp_table      0000000000000000     <absolute>
 0000:00000000       ___safe_se_handler_count   0000000000000000     <absolute>
 0000:00000000       __hybrid_auxiliary_iat     0000000000000000     <absolute>
 0000:00000000       __guard_longjmp_count      0000000000000000     <absolute>
 0000:00000000       __dynamic_value_reloc_table 0000000000000000     <absolute>
 0000:00000000       __hybrid_code_map          0000000000000000     <absolute>
 0000:00000000       __guard_fids_table         0000000000000000     <absolute>
 0000:00000000       ___safe_se_handler_table   0000000000000000     <absolute>
 0000:00000100       __guard_flags              0000000000000100     <absolute>
 0000:00000000       __ImageBase                0000000180000000     <linker-defined>
 0001:00005c30       PxSetPhysXCookingDelayLoadHook 0000000180006c30 f   WindowsCookingDelayLoadHook.obj
 0001:00005c50       ?delayHook@@YAP6A_JXZIPEAUDelayLoadInfo@@@Z 0000000180006c50 f   WindowsCookingDelayLoadHook.obj
 0001:00005d00       ?foundationDliNotePreLoadLibrary@shdfnd@physx@@YAP6A_JXZPEBDPEBVPxFoundationDelayLoadHook@2@@Z 0000000180006d00 f i WindowsCookingDelayLoadHook.obj
 0001:00005e40       ?loadLibrary@Cm@physx@@YAPEAUHINSTANCE__@@PEBD@Z 0000000180006e40 f i WindowsCookingDelayLoadHook.obj
 0001:00005e60       ?physXCommonDliNotePreLoadLibrary@Cm@physx@@YAP6A_JXZPEBDPEBVPxDelayLoadHook@2@@Z 0000000180006e60 f i WindowsCookingDelayLoadHook.obj
 0001:000060d0       ?saveHeightField@physx@@YA_NAEBVHeightField@Gu@1@AEAVPxOutputStream@1@_N@Z 00000001800070d0 f   HeightFieldCooking.obj
 0001:00006590       ??APxVec3@physx@@QEBAAEBMI@Z 0000000180007590 f i HeightFieldCooking.obj
 0001:00006620       ??B?$PxFlags@W4Enum@PxHeightFieldFlag@physx@@G@physx@@QEBAGXZ 0000000180007620 f i HeightFieldCooking.obj
 0001:00006640       ?__empty_global_delete@@YAXPEAX@Z 0000000180007640 f i HeightFieldCooking.obj
 0001:00006650       ?__empty_global_delete@@YAXPEAX_K@Z 0000000180007650 f i HeightFieldCooking.obj
 0001:00006650       ?__global_array_delete@@YAXPEAX_K@Z 0000000180007650 f i HeightFieldCooking.obj
 0001:00006650       ?__global_delete@@YAXPEAX_K@Z 0000000180007650 f i HeightFieldCooking.obj
 0001:00006660       ?getData@HeightField@Gu@physx@@QEBAAEBUHeightFieldData@23@XZ 0000000180007660 f i HeightFieldCooking.obj
 0001:00006680       ?getMax@CenterExtents@Gu@physx@@QEBAMI@Z 0000000180007680 f i HeightFieldCooking.obj
 0001:000066e0       ?getMin@CenterExtents@Gu@physx@@QEBAMI@Z 00000001800076e0 f i HeightFieldCooking.obj
 0001:00006740       ?buildFromTriangles@RTreeCooker@physx@@SAXAEAURTree@Gu@2@PEBVPxVec3@2@IPEBGPEBIIAEAV?$Array@IVNamedAllocator@shdfnd@physx@@@shdfnd@2@PEAURemapCallback@12@MW4Enum@PxMeshCookingHint@2@@Z 0000000180007740 f   RTreeCooking.obj
 0001:000085a0       ??$PX_UNUSED@I@@YAXAEBI@Z  00000001800095a0 f i RTreeCooking.obj
 0001:000085b0       ??$PX_UNUSED@M@@YAXAEBM@Z  00000001800095b0 f i RTreeCooking.obj
 0001:000085c0       ??$PX_UNUSED@PEAURTreeNodeNQ@physx@@@@YAXAEBQEAURTreeNodeNQ@physx@@@Z 00000001800095c0 f i RTreeCooking.obj
 0001:000085d0       ??$PX_UNUSED@URTreeNodeNQ@physx@@@@YAXAEBURTreeNodeNQ@physx@@@Z 00000001800095d0 f i RTreeCooking.obj
 0001:000085e0       ??$PxMax@H@physx@@YAHHH@Z  00000001800095e0 f i RTreeCooking.obj
 0001:00008620       ??$PxMax@I@physx@@YAIII@Z  0000000180009620 f i RTreeCooking.obj
 0001:00008660       ??$PxMax@M@physx@@YAMMM@Z  0000000180009660 f i RTreeCooking.obj
 0001:00008690       ??$PxMin@I@physx@@YAIII@Z  0000000180009690 f i RTreeCooking.obj
 0001:000086d0       ??$PxMin@M@physx@@YAMMM@Z  00000001800096d0 f i RTreeCooking.obj
 0001:00008700       ??$median3@I$$CBU?$Less@I@shdfnd@physx@@@internal@shdfnd@physx@@YAXPEAIHHAEBU?$Less@I@12@@Z 0000000180009700 f i RTreeCooking.obj
 0001:000088c0       ??$median3@I$$CBUSortBoundsPredicate@physx@@@internal@shdfnd@physx@@YAXPEAIHHAEBUSortBoundsPredicate@2@@Z 00000001800098c0 f i RTreeCooking.obj
 0001:00008a80       ??$partition@I$$CBU?$Less@I@shdfnd@physx@@@internal@shdfnd@physx@@YAHPEAIHHAEBU?$Less@I@12@@Z 0000000180009a80 f i RTreeCooking.obj
 0001:00008cf0       ??$partition@I$$CBUSortBoundsPredicate@physx@@@internal@shdfnd@physx@@YAHPEAIHHAEBUSortBoundsPredicate@2@@Z 0000000180009cf0 f i RTreeCooking.obj
 0001:00008f60       ??$partition@UBoundsLTE@physx@@@quickSelect@physx@@YAIPEIAIIIIAEBUBoundsLTE@1@@Z 0000000180009f60 f i RTreeCooking.obj
 0001:00009380       ??$quickSelectFirstK@UBoundsLTE@physx@@@quickSelect@physx@@YAXPEIAIIIIAEBUBoundsLTE@1@@Z 000000018000a380 f i RTreeCooking.obj
 0001:00009530       ??$smallSort@I$$CBU?$Less@I@shdfnd@physx@@@internal@shdfnd@physx@@YAXPEAIHHAEBU?$Less@I@12@@Z 000000018000a530 f i RTreeCooking.obj
 0001:00009640       ??$smallSort@I$$CBUSortBoundsPredicate@physx@@@internal@shdfnd@physx@@YAXPEAIHHAEBUSortBoundsPredicate@2@@Z 000000018000a640 f i RTreeCooking.obj
 0001:00009750       ??$sort@I@shdfnd@physx@@YAXPEAII@Z 000000018000a750 f i RTreeCooking.obj
 0001:000097b0       ??$sort@IU?$Less@I@shdfnd@physx@@VNamedAllocator@23@@shdfnd@physx@@YAXPEAIIAEBU?$Less@I@01@AEBVNamedAllocator@01@I@Z 000000018000a7b0 f i RTreeCooking.obj
 0001:00009b60       ??$sort@IUSortBoundsPredicate@physx@@@shdfnd@physx@@YAXPEAIIAEBUSortBoundsPredicate@1@@Z 000000018000ab60 f i RTreeCooking.obj
 0001:00009bc0       ??$sort@IUSortBoundsPredicate@physx@@VNamedAllocator@shdfnd@2@@shdfnd@physx@@YAXPEAIIAEBUSortBoundsPredicate@1@AEBVNamedAllocator@01@I@Z 000000018000abc0 f i RTreeCooking.obj
 0001:00009f70       ??$swap@I@shdfnd@physx@@YAXAEAI0@Z 000000018000af70 f i RTreeCooking.obj
 0001:00009fc0       ??0?$AlignedAllocator@$0IA@VNonTrackingAllocator@shdfnd@physx@@@shdfnd@physx@@QEAA@AEBVNonTrackingAllocator@12@@Z 000000018000afc0 f i RTreeCooking.obj
 0001:00009fe0       ??0?$Array@IVNamedAllocator@shdfnd@physx@@@shdfnd@physx@@QEAA@IAEBIAEBVNamedAllocator@12@@Z 000000018000afe0 f i RTreeCooking.obj
 0001:0000a070       ??0?$Array@UInterval@physx@@V?$InlineAllocator@$0CA@VNamedAllocator@shdfnd@physx@@@shdfnd@2@@shdfnd@physx@@QEAA@AEBV?$InlineAllocator@$0CA@VNamedAllocator@shdfnd@physx@@@12@@Z 000000018000b070 f i RTreeCooking.obj
 0001:0000a0d0       ??0?$Array@UPxBounds3V@physx@@VNamedAllocator@shdfnd@2@@shdfnd@physx@@QEAA@AEBVNamedAllocator@12@@Z 000000018000b0d0 f i RTreeCooking.obj
 0001:0000a130       ??0?$Array@URTreeNodeNQ@physx@@VNamedAllocator@shdfnd@2@@shdfnd@physx@@QEAA@AEBVNamedAllocator@12@@Z 000000018000b130 f i RTreeCooking.obj
 0001:0000a190       ??0?$Array@URTreeNodeQ@Gu@physx@@VNamedAllocator@shdfnd@3@@shdfnd@physx@@QEAA@AEBVNamedAllocator@12@@Z 000000018000b190 f i RTreeCooking.obj
 0001:0000a1f0       ??0?$Array@VPxVec3@physx@@VNamedAllocator@shdfnd@2@@shdfnd@physx@@QEAA@AEBVNamedAllocator@12@@Z 000000018000b1f0 f i RTreeCooking.obj
 0001:0000a250       ??0?$InlineAllocator@$0CA@VNamedAllocator@shdfnd@physx@@@shdfnd@physx@@QEAA@AEBV012@@Z 000000018000b250 f i RTreeCooking.obj
 0001:0000a290       ??0?$InlineAllocator@$0CA@VNamedAllocator@shdfnd@physx@@@shdfnd@physx@@QEAA@AEBVNamedAllocator@12@@Z 000000018000b290 f i RTreeCooking.obj
 0001:0000a2d0       ??0?$InlineArray@UInterval@physx@@$03VNamedAllocator@shdfnd@2@@shdfnd@physx@@QEAA@AEBVNamedAllocator@12@@Z 000000018000b2d0 f i RTreeCooking.obj
 0001:0000a350       ??0?$ScopedPointer@HVTempAllocator@shdfnd@physx@@@shdfnd@physx@@QEAA@XZ 000000018000b350 f i RTreeCooking.obj
 0001:0000a380       ??0?$Stack@VNamedAllocator@shdfnd@physx@@@internal@shdfnd@physx@@QEAA@PEAHIAEBVNamedAllocator@23@@Z 000000018000b380 f i RTreeCooking.obj
 0001:0000a400       ??0BoundsLTE@physx@@QEAA@IPEBVPxVec3@1@@Z 000000018000b400 f i RTreeCooking.obj
 0001:0000a440       ??0Interval@physx@@QEAA@II@Z 000000018000b440 f i RTreeCooking.obj
 0001:0000a480       ??0NonTrackingAllocator@shdfnd@physx@@QEAA@PEBD@Z 000000018000b480 f i RTreeCooking.obj
 0001:0000a4a0       ??0PxBounds3@physx@@QEAA@AEBV01@@Z 000000018000b4a0 f i RTreeCooking.obj
 0001:0000a500       ??0PxBounds3@physx@@QEAA@AEBVPxVec3@1@0@Z 000000018000b500 f i RTreeCooking.obj
 0001:0000a560       ??0PxBounds3V@physx@@QEAA@AEAT__m128@@0@Z 000000018000b560 f i RTreeCooking.obj
 0001:0000a5b0       ??0PxBounds3V@physx@@QEAA@UU@01@@Z 000000018000b5b0 f i RTreeCooking.obj
 0001:0000a5d0       ??0PxVec3@physx@@QEAA@AEBV01@@Z 000000018000b5d0 f i RTreeCooking.obj
 0001:0000a630       ??0PxVec3@physx@@QEAA@M@Z  000000018000b630 f i RTreeCooking.obj
 0001:0000a680       ??0PxVec3@physx@@QEAA@MMM@Z 000000018000b680 f i RTreeCooking.obj
 0001:0000a6e0       ??0PxVec3@physx@@QEAA@XZ   000000018000b6e0 f i RTreeCooking.obj
 0001:0000a6f0       ??0PxVec4@physx@@QEAA@AEBVPxVec3@1@M@Z 000000018000b6f0 f i RTreeCooking.obj
 0001:0000a770       ??0PxVec4@physx@@QEAA@M@Z  000000018000b770 f i RTreeCooking.obj
 0001:0000a7e0       ??0PxVec4@physx@@QEAA@MMMM@Z 000000018000b7e0 f i RTreeCooking.obj
 0001:0000a860       ??0RTreeNodeNQ@physx@@QEAA@AEBU01@@Z 000000018000b860 f i RTreeCooking.obj
 0001:0000a8c0       ??0RTreeNodeNQ@physx@@QEAA@XZ 000000018000b8c0 f i RTreeCooking.obj
 0001:0000a910       ??0SortBoundsPredicate@physx@@QEAA@IPEBUPxBounds3V@1@@Z 000000018000b910 f i RTreeCooking.obj
 0001:0000a950       ??0SubSortQuick@physx@@QEAA@PEAIPEBUPxBounds3V@1@IM@Z 000000018000b950 f i RTreeCooking.obj
 0001:0000ab20       ??0SubSortSAH@physx@@QEAA@PEAIPEBUPxBounds3V@1@IPEBI22222M@Z 000000018000bb20 f i RTreeCooking.obj
 0001:0000ad90       ??0TempAllocator@shdfnd@physx@@QEAA@PEBD@Z 000000018000bd90 f i RTreeCooking.obj
 0001:0000adb0       ??1?$Array@IVNamedAllocator@shdfnd@physx@@@shdfnd@physx@@QEAA@XZ 000000018000bdb0 f i RTreeCooking.obj
 0001:0000ae40       ??1?$Array@UInterval@physx@@V?$InlineAllocator@$0CA@VNamedAllocator@shdfnd@physx@@@shdfnd@2@@shdfnd@physx@@QEAA@XZ 000000018000be40 f i RTreeCooking.obj
 0001:0000aed0       ??1?$Array@UPxBounds3V@physx@@VNamedAllocator@shdfnd@2@@shdfnd@physx@@QEAA@XZ 000000018000bed0 f i RTreeCooking.obj
 0001:0000af60       ??1?$Array@URTreeNodeNQ@physx@@VNamedAllocator@shdfnd@2@@shdfnd@physx@@QEAA@XZ 000000018000bf60 f i RTreeCooking.obj
 0001:0000aff0       ??1?$Array@URTreeNodeQ@Gu@physx@@VNamedAllocator@shdfnd@3@@shdfnd@physx@@QEAA@XZ 000000018000bff0 f i RTreeCooking.obj
 0001:0000b080       ??1?$Array@VPxVec3@physx@@VNamedAllocator@shdfnd@2@@shdfnd@physx@@QEAA@XZ 000000018000c080 f i RTreeCooking.obj
 0001:0000b110       ??1?$InlineAllocator@$0CA@VNamedAllocator@shdfnd@physx@@@shdfnd@physx@@QEAA@XZ 000000018000c110 f i RTreeCooking.obj
 0001:0000b130       ??1?$InlineArray@UInterval@physx@@$03VNamedAllocator@shdfnd@2@@shdfnd@physx@@QEAA@XZ 000000018000c130 f i RTreeCooking.obj
 0001:0000b150       ??1?$ScopedPointer@HVTempAllocator@shdfnd@physx@@@shdfnd@physx@@QEAA@XZ 000000018000c150 f i RTreeCooking.obj
 0001:0000b190       ??1?$Stack@VNamedAllocator@shdfnd@physx@@@internal@shdfnd@physx@@QEAA@XZ 000000018000c190 f i RTreeCooking.obj
 0001:0000b1e0       ??1SubSortQuick@physx@@QEAA@XZ 000000018000c1e0 f i RTreeCooking.obj
 0001:0000b210       ??1SubSortSAH@physx@@QEAA@XZ 000000018000c210 f i RTreeCooking.obj
 0001:0000b2e0       ??2@YAPEAX_KPEAX@Z         000000018000c2e0 f i RTreeCooking.obj
 0001:0000b300       ??4PxVec3@physx@@QEAAAEAV01@AEBV01@@Z 000000018000c300 f i RTreeCooking.obj
 0001:0000b360       ??4PxVec4@physx@@QEAAAEAV01@AEBV01@@Z 000000018000c360 f i RTreeCooking.obj
 0001:0000b3e0       ??A?$Array@IVNamedAllocator@shdfnd@physx@@@shdfnd@physx@@QEAAAEAII@Z 000000018000c3e0 f i RTreeCooking.obj
 0001:0000b480       ??A?$Array@UInterval@physx@@V?$InlineAllocator@$0CA@VNamedAllocator@shdfnd@physx@@@shdfnd@2@@shdfnd@physx@@QEAAAEAUInterval@2@I@Z 000000018000c480 f i RTreeCooking.obj
 0001:0000b520       ??A?$Array@URTreeNodeNQ@physx@@VNamedAllocator@shdfnd@2@@shdfnd@physx@@QEAAAEAURTreeNodeNQ@2@I@Z 000000018000c520 f i RTreeCooking.obj
 0001:0000b5c0       ??A?$Array@URTreeNodeQ@Gu@physx@@VNamedAllocator@shdfnd@3@@shdfnd@physx@@QEAAAEAURTreeNodeQ@Gu@2@I@Z 000000018000c5c0 f i RTreeCooking.obj
 0001:0000b660       ??B?$ScopedPointer@HVTempAllocator@shdfnd@physx@@@shdfnd@physx@@QEBAPEAHXZ 000000018000c660 f i RTreeCooking.obj
 0001:0000b680       ??GPxVec4@physx@@QEBA?AV01@AEBV01@@Z 000000018000c680 f i RTreeCooking.obj
 0001:0000b730       ??HPxVec3@physx@@QEBA?AV01@AEBV01@@Z 000000018000c730 f i RTreeCooking.obj
 0001:0000b7d0       ??KPxVec4@physx@@QEBA?AV01@M@Z 000000018000c7d0 f i RTreeCooking.obj
 0001:0000b890       ??R?$Less@I@shdfnd@physx@@QEBA_NAEBI0@Z 000000018000c890 f i RTreeCooking.obj
 0001:0000b8e0       ??RBoundsLTE@physx@@QEBA_NAEBI0@Z 000000018000c8e0 f i RTreeCooking.obj
 0001:0000b9a0       ??RSortBoundsPredicate@physx@@QEBA_NAEBI0@Z 000000018000c9a0 f i RTreeCooking.obj
 0001:0000bb20       ??_H@YAXPEAX_K1P6APEAX0@Z@Z 000000018000cb20 f i RTreeCooking.obj
 0001:0000bbc0       ?FLoad@aos@shdfnd@physx@@YA?AT__m128@@M@Z 000000018000cbc0 f i RTreeCooking.obj
 0001:0000bbf0       ?FMax@aos@shdfnd@physx@@YA?AT__m128@@XZ 000000018000cbf0 f i RTreeCooking.obj
 0001:0000bc20       ?FNegMax@aos@shdfnd@physx@@YA?AT__m128@@XZ 000000018000cc20 f i RTreeCooking.obj
 0001:0000bc50       ?FStore@aos@shdfnd@physx@@YAXT__m128@@PEIAM@Z 000000018000cc50 f i RTreeCooking.obj
 0001:0000bd00       ?PxAbs@physx@@YAHH@Z       000000018000cd00 f i RTreeCooking.obj
 0001:0000bd20       ?PxAbs@physx@@YAMM@Z       000000018000cd20 f i RTreeCooking.obj
 0001:0000bd40       ?PxIsFinite@physx@@YA_NM@Z 000000018000cd40 f i RTreeCooking.obj
 0001:0000bd60       ?PxMemCopy@physx@@YAPEAXPEIAXPEIBXI@Z 000000018000cd60 f i RTreeCooking.obj
 0001:0000bda0       ?V3Add@aos@shdfnd@physx@@YA?AT__m128@@T4@0@Z 000000018000cda0 f i RTreeCooking.obj
 0001:0000bef0       ?V3Dot@aos@shdfnd@physx@@YA?AT__m128@@T4@0@Z 000000018000cef0 f i RTreeCooking.obj
 0001:0000c100       ?V3Load@aos@shdfnd@physx@@YA?AT__m128@@M@Z 000000018000d100 f i RTreeCooking.obj
 0001:0000c150       ?V3LoadU@aos@shdfnd@physx@@YA?AT__m128@@AEBVPxVec3@3@@Z 000000018000d150 f i RTreeCooking.obj
 0001:0000c1b0       ?V3Max@aos@shdfnd@physx@@YA?AT__m128@@T4@0@Z 000000018000d1b0 f i RTreeCooking.obj
 0001:0000c300       ?V3Min@aos@shdfnd@physx@@YA?AT__m128@@T4@0@Z 000000018000d300 f i RTreeCooking.obj
 0001:0000c450       ?V3PermZXY@aos@shdfnd@physx@@YA?AT__m128@@T4@@Z 000000018000d450 f i RTreeCooking.obj
 0001:0000c510       ?V3ReadXYZ@aos@shdfnd@physx@@YAAEBVPxVec3@3@AEBT__m128@@@Z 000000018000d510 f i RTreeCooking.obj
 0001:0000c520       ?V3Splat@aos@shdfnd@physx@@YA?AT__m128@@T4@@Z 000000018000d520 f i RTreeCooking.obj
 0001:0000c630       ?V3StoreA@aos@shdfnd@physx@@YAXT__m128@@AEAVPxVec3@3@@Z 000000018000d630 f i RTreeCooking.obj
 0001:0000c720       ?V3StoreU@aos@shdfnd@physx@@YAXT__m128@@AEAVPxVec3@3@@Z 000000018000d720 f i RTreeCooking.obj
 0001:0000c7a0       ?V3Sub@aos@shdfnd@physx@@YA?AT__m128@@T4@0@Z 000000018000d7a0 f i RTreeCooking.obj
 0001:0000c8f0       ?V3Zero@aos@shdfnd@physx@@YA?AT__m128@@XZ 000000018000d8f0 f i RTreeCooking.obj
 0001:0000c910       ?V4ClearW@aos@shdfnd@physx@@YA?AT__m128@@T4@@Z 000000018000d910 f i RTreeCooking.obj
 0001:0000c940       ?V4Load@aos@shdfnd@physx@@YA?AT__m128@@M@Z 000000018000d940 f i RTreeCooking.obj
 0001:0000c970       ?V4ReadW@aos@shdfnd@physx@@YAMAEBT__m128@@@Z 000000018000d970 f i RTreeCooking.obj
 0001:0000c990       ?V4ReadX@aos@shdfnd@physx@@YAMAEBT__m128@@@Z 000000018000d990 f i RTreeCooking.obj
 0001:0000c9b0       ?V4ReadY@aos@shdfnd@physx@@YAMAEBT__m128@@@Z 000000018000d9b0 f i RTreeCooking.obj
 0001:0000c9d0       ?V4ReadZ@aos@shdfnd@physx@@YAMAEBT__m128@@@Z 000000018000d9d0 f i RTreeCooking.obj
 0001:0000c9f0       ?V4StoreA@aos@shdfnd@physx@@YAXT__m128@@PEAM@Z 000000018000d9f0 f i RTreeCooking.obj
 0001:0000ca90       ?Vec3V_From_FloatV@aos@shdfnd@physx@@YA?AT__m128@@T4@@Z 000000018000da90 f i RTreeCooking.obj
 0001:0000caf0       ?Vec3V_From_Vec4V@aos@shdfnd@physx@@YA?AT__m128@@T4@@Z 000000018000daf0 f i RTreeCooking.obj
 0001:0000cb30       ?Vec4V_From_FloatV@aos@shdfnd@physx@@YA?AT__m128@@T4@@Z 000000018000db30 f i RTreeCooking.obj
 0001:0000cb50       ?abs@intrinsics@physx@@YAMM@Z 000000018000db50 f i RTreeCooking.obj
 0001:0000cb70       ?allocate@?$AlignedAllocator@$0IA@VNonTrackingAllocator@shdfnd@physx@@@shdfnd@physx@@QEAAPEAX_KPEBDH@Z 000000018000db70 f i RTreeCooking.obj
 0001:0000cc40       ?allocate@?$Array@IVNamedAllocator@shdfnd@physx@@@shdfnd@physx@@IEAAPEAII@Z 000000018000dc40 f i RTreeCooking.obj
 0001:0000ccf0       ?allocate@?$Array@UInterval@physx@@V?$InlineAllocator@$0CA@VNamedAllocator@shdfnd@physx@@@shdfnd@2@@shdfnd@physx@@IEAAPEAUInterval@3@I@Z 000000018000dcf0 f i RTreeCooking.obj
 0001:0000cda0       ?allocate@?$Array@UPxBounds3V@physx@@VNamedAllocator@shdfnd@2@@shdfnd@physx@@IEAAPEAUPxBounds3V@3@I@Z 000000018000dda0 f i RTreeCooking.obj
 0001:0000ce50       ?allocate@?$Array@URTreeNodeNQ@physx@@VNamedAllocator@shdfnd@2@@shdfnd@physx@@IEAAPEAURTreeNodeNQ@3@I@Z 000000018000de50 f i RTreeCooking.obj
 0001:0000cf00       ?allocate@?$Array@URTreeNodeQ@Gu@physx@@VNamedAllocator@shdfnd@3@@shdfnd@physx@@IEAAPEAURTreeNodeQ@Gu@3@I@Z 000000018000df00 f i RTreeCooking.obj
 0001:0000cfb0       ?allocate@?$Array@VPxVec3@physx@@VNamedAllocator@shdfnd@2@@shdfnd@physx@@IEAAPEAVPxVec3@3@I@Z 000000018000dfb0 f i RTreeCooking.obj
 0001:0000d060       ?allocate@?$InlineAllocator@$0CA@VNamedAllocator@shdfnd@physx@@@shdfnd@physx@@QEAAPEAXIPEBDH@Z 000000018000e060 f i RTreeCooking.obj
 0001:0000d0e0       ?allocate@NonTrackingAllocator@shdfnd@physx@@QEAAPEAX_KPEBDH@Z 000000018000e0e0 f i RTreeCooking.obj
 0001:0000d170       ?begin@?$Array@IVNamedAllocator@shdfnd@physx@@@shdfnd@physx@@QEAAPEAIXZ 000000018000e170 f i RTreeCooking.obj
 0001:0000d190       ?begin@?$Array@UPxBounds3V@physx@@VNamedAllocator@shdfnd@2@@shdfnd@physx@@QEAAPEAUPxBounds3V@3@XZ 000000018000e190 f i RTreeCooking.obj
 0001:0000d1b0       ?begin@?$Array@VPxVec3@physx@@VNamedAllocator@shdfnd@2@@shdfnd@physx@@QEAAPEAVPxVec3@3@XZ 000000018000e1b0 f i RTreeCooking.obj
 0001:0000d1d0       ?capacity@?$Array@IVNamedAllocator@shdfnd@physx@@@shdfnd@physx@@QEBAIXZ 000000018000e1d0 f i RTreeCooking.obj
 0001:0000d1f0       ?capacity@?$Array@UInterval@physx@@V?$InlineAllocator@$0CA@VNamedAllocator@shdfnd@physx@@@shdfnd@2@@shdfnd@physx@@QEBAIXZ 000000018000e1f0 f i RTreeCooking.obj
 0001:0000d210       ?capacity@?$Array@UPxBounds3V@physx@@VNamedAllocator@shdfnd@2@@shdfnd@physx@@QEBAIXZ 000000018000e210 f i RTreeCooking.obj
 0001:0000d230       ?capacity@?$Array@URTreeNodeNQ@physx@@VNamedAllocator@shdfnd@2@@shdfnd@physx@@QEBAIXZ 000000018000e230 f i RTreeCooking.obj
 0001:0000d250       ?capacity@?$Array@URTreeNodeQ@Gu@physx@@VNamedAllocator@shdfnd@3@@shdfnd@physx@@QEBAIXZ 000000018000e250 f i RTreeCooking.obj
 0001:0000d270       ?capacity@?$Array@VPxVec3@physx@@VNamedAllocator@shdfnd@2@@shdfnd@physx@@QEBAIXZ 000000018000e270 f i RTreeCooking.obj
 0001:0000d290       ?capacityIncrement@?$Array@IVNamedAllocator@shdfnd@physx@@@shdfnd@physx@@IEBAIXZ 000000018000e290 f i RTreeCooking.obj
 0001:0000d2e0       ?capacityIncrement@?$Array@UInterval@physx@@V?$InlineAllocator@$0CA@VNamedAllocator@shdfnd@physx@@@shdfnd@2@@shdfnd@physx@@IEBAIXZ 000000018000e2e0 f i RTreeCooking.obj
 0001:0000d330       ?capacityIncrement@?$Array@UPxBounds3V@physx@@VNamedAllocator@shdfnd@2@@shdfnd@physx@@IEBAIXZ 000000018000e330 f i RTreeCooking.obj
 0001:0000d380       ?capacityIncrement@?$Array@URTreeNodeNQ@physx@@VNamedAllocator@shdfnd@2@@shdfnd@physx@@IEBAIXZ 000000018000e380 f i RTreeCooking.obj
 0001:0000d3d0       ?capacityIncrement@?$Array@URTreeNodeQ@Gu@physx@@VNamedAllocator@shdfnd@3@@shdfnd@physx@@IEBAIXZ 000000018000e3d0 f i RTreeCooking.obj
 0001:0000d420       ?capacityIncrement@?$Array@VPxVec3@physx@@VNamedAllocator@shdfnd@2@@shdfnd@physx@@IEBAIXZ 000000018000e420 f i RTreeCooking.obj
 0001:0000d470       ?computeSA@SubSortSAH@physx@@QEAAMPEBIAEBUInterval@2@@Z 000000018000e470 f i RTreeCooking.obj
 0001:0000d700       ?copy@?$Array@IVNamedAllocator@shdfnd@physx@@@shdfnd@physx@@KAXPEAI0PEBI@Z 000000018000e700 f i RTreeCooking.obj
 0001:0000d7e0       ?copy@?$Array@UInterval@physx@@V?$InlineAllocator@$0CA@VNamedAllocator@shdfnd@physx@@@shdfnd@2@@shdfnd@physx@@KAXPEAUInterval@3@0PEBU43@@Z 000000018000e7e0 f i RTreeCooking.obj
 0001:0000d8c0       ?copy@?$Array@UPxBounds3V@physx@@VNamedAllocator@shdfnd@2@@shdfnd@physx@@KAXPEAUPxBounds3V@3@0PEBU43@@Z 000000018000e8c0 f i RTreeCooking.obj
 0001:0000d9b0       ?copy@?$Array@URTreeNodeNQ@physx@@VNamedAllocator@shdfnd@2@@shdfnd@physx@@KAXPEAURTreeNodeNQ@3@0PEBU43@@Z 000000018000e9b0 f i RTreeCooking.obj
 0001:0000da90       ?copy@?$Array@URTreeNodeQ@Gu@physx@@VNamedAllocator@shdfnd@3@@shdfnd@physx@@KAXPEAURTreeNodeQ@Gu@3@0PEBU453@@Z 000000018000ea90 f i RTreeCooking.obj
 0001:0000db80       ?copy@?$Array@VPxVec3@physx@@VNamedAllocator@shdfnd@2@@shdfnd@physx@@KAXPEAVPxVec3@3@0PEBV43@@Z 000000018000eb80 f i RTreeCooking.obj
 0001:0000dc70       ?create@?$Array@IVNamedAllocator@shdfnd@physx@@@shdfnd@physx@@KAXPEAI0AEBI@Z 000000018000ec70 f i RTreeCooking.obj
 0001:0000dd40       ?deallocate@?$Array@IVNamedAllocator@shdfnd@physx@@@shdfnd@physx@@IEAAXPEAX@Z 000000018000ed40 f i RTreeCooking.obj
 0001:0000dd70       ?deallocate@?$Array@UInterval@physx@@V?$InlineAllocator@$0CA@VNamedAllocator@shdfnd@physx@@@shdfnd@2@@shdfnd@physx@@IEAAXPEAX@Z 000000018000ed70 f i RTreeCooking.obj
 0001:0000dda0       ?deallocate@?$Array@UPxBounds3V@physx@@VNamedAllocator@shdfnd@2@@shdfnd@physx@@IEAAXPEAX@Z 000000018000eda0 f i RTreeCooking.obj
 0001:0000ddd0       ?deallocate@?$Array@URTreeNodeNQ@physx@@VNamedAllocator@shdfnd@2@@shdfnd@physx@@IEAAXPEAX@Z 000000018000edd0 f i RTreeCooking.obj
 0001:0000de00       ?deallocate@?$Array@URTreeNodeQ@Gu@physx@@VNamedAllocator@shdfnd@3@@shdfnd@physx@@IEAAXPEAX@Z 000000018000ee00 f i RTreeCooking.obj
 0001:0000de30       ?deallocate@?$Array@VPxVec3@physx@@VNamedAllocator@shdfnd@2@@shdfnd@physx@@IEAAXPEAX@Z 000000018000ee30 f i RTreeCooking.obj
 0001:0000de60       ?deallocate@?$InlineAllocator@$0CA@VNamedAllocator@shdfnd@physx@@@shdfnd@physx@@QEAAXPEAX@Z 000000018000ee60 f i RTreeCooking.obj
 0001:0000deb0       ?destroy@?$Array@IVNamedAllocator@shdfnd@physx@@@shdfnd@physx@@KAXPEAI0@Z 000000018000eeb0 f i RTreeCooking.obj
 0001:0000df00       ?destroy@?$Array@UInterval@physx@@V?$InlineAllocator@$0CA@VNamedAllocator@shdfnd@physx@@@shdfnd@2@@shdfnd@physx@@KAXPEAUInterval@3@0@Z 000000018000ef00 f i RTreeCooking.obj
 0001:0000df50       ?destroy@?$Array@UPxBounds3V@physx@@VNamedAllocator@shdfnd@2@@shdfnd@physx@@KAXPEAUPxBounds3V@3@0@Z 000000018000ef50 f i RTreeCooking.obj
 0001:0000dfa0       ?destroy@?$Array@URTreeNodeNQ@physx@@VNamedAllocator@shdfnd@2@@shdfnd@physx@@KAXPEAURTreeNodeNQ@3@0@Z 000000018000efa0 f i RTreeCooking.obj
 0001:0000dff0       ?destroy@?$Array@URTreeNodeQ@Gu@physx@@VNamedAllocator@shdfnd@3@@shdfnd@physx@@KAXPEAURTreeNodeQ@Gu@3@0@Z 000000018000eff0 f i RTreeCooking.obj
 0001:0000e040       ?destroy@?$Array@VPxVec3@physx@@VNamedAllocator@shdfnd@2@@shdfnd@physx@@KAXPEAVPxVec3@3@0@Z 000000018000f040 f i RTreeCooking.obj
 0001:0000e090       ?empty@?$Stack@VNamedAllocator@shdfnd@physx@@@internal@shdfnd@physx@@QEAA_NXZ 000000018000f090 f i RTreeCooking.obj
 0001:0000e0d0       ?empty@PxBounds3@physx@@SA?AV12@XZ 000000018000f0d0 f i RTreeCooking.obj
 0001:0000e140       ?getExtents@PxBounds3V@physx@@QEBA?AT__m128@@XZ 000000018000f140 f i RTreeCooking.obj
 0001:0000e1b0       ?getMaxVec3@PxBounds3V@physx@@QEBA?BVPxVec3@2@XZ 000000018000f1b0 f i RTreeCooking.obj
 0001:0000e220       ?getMinVec3@PxBounds3V@physx@@QEBA?BVPxVec3@2@XZ 000000018000f220 f i RTreeCooking.obj
 0001:0000e280       ?grow@?$Array@IVNamedAllocator@shdfnd@physx@@@shdfnd@physx@@IEAAXI@Z 000000018000f280 f i RTreeCooking.obj
 0001:0000e320       ?grow@?$Array@UPxBounds3V@physx@@VNamedAllocator@shdfnd@2@@shdfnd@physx@@IEAAXI@Z 000000018000f320 f i RTreeCooking.obj
 0001:0000e3c0       ?grow@?$Array@URTreeNodeNQ@physx@@VNamedAllocator@shdfnd@2@@shdfnd@physx@@IEAAXI@Z 000000018000f3c0 f i RTreeCooking.obj
 0001:0000e460       ?grow@?$Array@URTreeNodeQ@Gu@physx@@VNamedAllocator@shdfnd@3@@shdfnd@physx@@IEAAXI@Z 000000018000f460 f i RTreeCooking.obj
 0001:0000e500       ?grow@?$Array@VPxVec3@physx@@VNamedAllocator@shdfnd@2@@shdfnd@physx@@IEAAXI@Z 000000018000f500 f i RTreeCooking.obj
 0001:0000e5a0       ?grow@?$Stack@VNamedAllocator@shdfnd@physx@@@internal@shdfnd@physx@@QEAAXXZ 000000018000f5a0 f i RTreeCooking.obj
 0001:0000e680       ?growAndPushBack@?$Array@IVNamedAllocator@shdfnd@physx@@@shdfnd@physx@@IEAAAEAIAEBI@Z 000000018000f680 f i RTreeCooking.obj
 0001:0000e860       ?growAndPushBack@?$Array@UInterval@physx@@V?$InlineAllocator@$0CA@VNamedAllocator@shdfnd@physx@@@shdfnd@2@@shdfnd@physx@@IEAAAEAUInterval@3@AEBU43@@Z 000000018000f860 f i RTreeCooking.obj
 0001:0000ea50       ?growAndPushBack@?$Array@UPxBounds3V@physx@@VNamedAllocator@shdfnd@2@@shdfnd@physx@@IEAAAEAUPxBounds3V@3@AEBU43@@Z 000000018000fa50 f i RTreeCooking.obj
 0001:0000ec90       ?growAndPushBack@?$Array@URTreeNodeNQ@physx@@VNamedAllocator@shdfnd@2@@shdfnd@physx@@IEAAAEAURTreeNodeNQ@3@AEBU43@@Z 000000018000fc90 f i RTreeCooking.obj
 0001:0000ee80       ?growAndPushBack@?$Array@URTreeNodeQ@Gu@physx@@VNamedAllocator@shdfnd@3@@shdfnd@physx@@IEAAAEAURTreeNodeQ@Gu@3@AEBU453@@Z 000000018000fe80 f i RTreeCooking.obj
 0001:0000f0c0       ?growAndPushBack@?$Array@VPxVec3@physx@@VNamedAllocator@shdfnd@2@@shdfnd@physx@@IEAAAEAVPxVec3@3@AEBV43@@Z 00000001800100c0 f i RTreeCooking.obj
 0001:0000f2b0       ?include@PxBounds3V@physx@@QEAAXAEBU12@@Z 00000001800102b0 f i RTreeCooking.obj
 0001:0000f380       ?isAligned16@aos@shdfnd@physx@@YA_NPEAX@Z 0000000180010380 f i RTreeCooking.obj
 0001:0000f3c0       ?isArrayOfPOD@?$Array@IVNamedAllocator@shdfnd@physx@@@shdfnd@physx@@SA_NXZ 00000001800103c0 f i RTreeCooking.obj
 0001:0000f3d0       ?isArrayOfPOD@?$Array@UInterval@physx@@V?$InlineAllocator@$0CA@VNamedAllocator@shdfnd@physx@@@shdfnd@2@@shdfnd@physx@@SA_NXZ 00000001800103d0 f i RTreeCooking.obj
 0001:0000f3e0       ?isArrayOfPOD@?$Array@UPxBounds3V@physx@@VNamedAllocator@shdfnd@2@@shdfnd@physx@@SA_NXZ 00000001800103e0 f i RTreeCooking.obj
 0001:0000f3f0       ?isArrayOfPOD@?$Array@URTreeNodeNQ@physx@@VNamedAllocator@shdfnd@2@@shdfnd@physx@@SA_NXZ 00000001800103f0 f i RTreeCooking.obj
 0001:0000f400       ?isArrayOfPOD@?$Array@URTreeNodeQ@Gu@physx@@VNamedAllocator@shdfnd@3@@shdfnd@physx@@SA_NXZ 0000000180010400 f i RTreeCooking.obj
 0001:0000f410       ?isArrayOfPOD@?$Array@VPxVec3@physx@@VNamedAllocator@shdfnd@2@@shdfnd@physx@@SA_NXZ 0000000180010410 f i RTreeCooking.obj
 0001:0000f420       ?isFinite@PxBounds3@physx@@QEBA_NXZ 0000000180010420 f i RTreeCooking.obj
 0001:0000f490       ?isFinite@PxVec3@physx@@QEBA_NXZ 0000000180010490 f i RTreeCooking.obj
 0001:0000f510       ?isFinite@intrinsics@physx@@YA_NM@Z 0000000180010510 f i RTreeCooking.obj
 0001:0000f560       ?isInUserMemory@?$Array@IVNamedAllocator@shdfnd@physx@@@shdfnd@physx@@QEBAIXZ 0000000180010560 f i RTreeCooking.obj
 0001:0000f580       ?isInUserMemory@?$Array@UInterval@physx@@V?$InlineAllocator@$0CA@VNamedAllocator@shdfnd@physx@@@shdfnd@2@@shdfnd@physx@@QEBAIXZ 0000000180010580 f i RTreeCooking.obj
 0001:0000f5a0       ?isInUserMemory@?$Array@UPxBounds3V@physx@@VNamedAllocator@shdfnd@2@@shdfnd@physx@@QEBAIXZ 00000001800105a0 f i RTreeCooking.obj
 0001:0000f5c0       ?isInUserMemory@?$Array@URTreeNodeNQ@physx@@VNamedAllocator@shdfnd@2@@shdfnd@physx@@QEBAIXZ 00000001800105c0 f i RTreeCooking.obj
 0001:0000f5e0       ?isInUserMemory@?$Array@URTreeNodeQ@Gu@physx@@VNamedAllocator@shdfnd@3@@shdfnd@physx@@QEBAIXZ 00000001800105e0 f i RTreeCooking.obj
 0001:0000f600       ?isInUserMemory@?$Array@VPxVec3@physx@@VNamedAllocator@shdfnd@2@@shdfnd@physx@@QEBAIXZ 0000000180010600 f i RTreeCooking.obj
 0001:0000f620       ?isInside@PxBounds3@physx@@QEBA_NAEBV12@@Z 0000000180010620 f i RTreeCooking.obj
 0001:0000f780       ?isLeaf@RTreeNodeQ@Gu@physx@@QEBAIXZ 0000000180010780 f i RTreeCooking.obj
 0001:0000f7a0       ?isValid@PxBounds3@physx@@QEBA_NXZ 00000001800107a0 f i RTreeCooking.obj
 0001:0000f8d0       ?isValidFloatV@aos@shdfnd@physx@@YA_NT__m128@@@Z 00000001800108d0 f i RTreeCooking.obj
 0001:0000fa20       ?isValidVec3V@aos@shdfnd@physx@@YA_NT__m128@@@Z 0000000180010a20 f i RTreeCooking.obj
 0001:0000fa90       ?isZeroInit@?$Array@IVNamedAllocator@shdfnd@physx@@@shdfnd@physx@@KA_NAEBI@Z 0000000180010a90 f i RTreeCooking.obj
 0001:0000fb10       ?memCopy@intrinsics@physx@@YAPEAXPEIAXPEIBXI@Z 0000000180010b10 f i RTreeCooking.obj
 0001:0000fb50       ?memZero@intrinsics@physx@@YAPEAXPEAXI@Z 0000000180010b50 f i RTreeCooking.obj
 0001:0000fb80       ?pop@?$Stack@VNamedAllocator@shdfnd@physx@@@internal@shdfnd@physx@@QEAAXAEAH0@Z 0000000180010b80 f i RTreeCooking.obj
 0001:0000fc90       ?popBack@?$Array@IVNamedAllocator@shdfnd@physx@@@shdfnd@physx@@QEAAIXZ 0000000180010c90 f i RTreeCooking.obj
 0001:0000fd80       ?push@?$Stack@VNamedAllocator@shdfnd@physx@@@internal@shdfnd@physx@@QEAAXHH@Z 0000000180010d80 f i RTreeCooking.obj
 0001:0000fe30       ?pushBack@?$Array@IVNamedAllocator@shdfnd@physx@@@shdfnd@physx@@QEAAAEAIAEBI@Z 0000000180010e30 f i RTreeCooking.obj
 0001:0000ff00       ?pushBack@?$Array@UInterval@physx@@V?$InlineAllocator@$0CA@VNamedAllocator@shdfnd@physx@@@shdfnd@2@@shdfnd@physx@@QEAAAEAUInterval@3@AEBU43@@Z 0000000180010f00 f i RTreeCooking.obj
 0001:0000ffd0       ?pushBack@?$Array@UPxBounds3V@physx@@VNamedAllocator@shdfnd@2@@shdfnd@physx@@QEAAAEAUPxBounds3V@3@AEBU43@@Z 0000000180010fd0 f i RTreeCooking.obj
 0001:000100a0       ?pushBack@?$Array@URTreeNodeNQ@physx@@VNamedAllocator@shdfnd@2@@shdfnd@physx@@QEAAAEAURTreeNodeNQ@3@AEBU43@@Z 00000001800110a0 f i RTreeCooking.obj
 0001:00010170       ?pushBack@?$Array@URTreeNodeQ@Gu@physx@@VNamedAllocator@shdfnd@3@@shdfnd@physx@@QEAAAEAURTreeNodeQ@Gu@3@AEBU453@@Z 0000000180011170 f i RTreeCooking.obj
 0001:00010240       ?pushBack@?$Array@VPxVec3@physx@@VNamedAllocator@shdfnd@2@@shdfnd@physx@@QEAAAEAVPxVec3@3@AEBV43@@Z 0000000180011240 f i RTreeCooking.obj
 0001:00010310       ?recreate@?$Array@IVNamedAllocator@shdfnd@physx@@@shdfnd@physx@@IEAAXI@Z 0000000180011310 f i RTreeCooking.obj
 0001:00010470       ?recreate@?$Array@UPxBounds3V@physx@@VNamedAllocator@shdfnd@2@@shdfnd@physx@@IEAAXI@Z 0000000180011470 f i RTreeCooking.obj
 0001:000105d0       ?recreate@?$Array@URTreeNodeNQ@physx@@VNamedAllocator@shdfnd@2@@shdfnd@physx@@IEAAXI@Z 00000001800115d0 f i RTreeCooking.obj
 0001:00010730       ?recreate@?$Array@URTreeNodeQ@Gu@physx@@VNamedAllocator@shdfnd@3@@shdfnd@physx@@IEAAXI@Z 0000000180011730 f i RTreeCooking.obj
 0001:00010890       ?recreate@?$Array@VPxVec3@physx@@VNamedAllocator@shdfnd@2@@shdfnd@physx@@IEAAXI@Z 0000000180011890 f i RTreeCooking.obj
 0001:000109f0       ?replaceWithLast@?$Array@UInterval@physx@@V?$InlineAllocator@$0CA@VNamedAllocator@shdfnd@physx@@@shdfnd@2@@shdfnd@physx@@QEAAXI@Z 00000001800119f0 f i RTreeCooking.obj
 0001:00010ad0       ?reserve@?$Array@IVNamedAllocator@shdfnd@physx@@@shdfnd@physx@@QEAAXI@Z 0000000180011ad0 f i RTreeCooking.obj
 0001:00010b10       ?reserve@?$Array@UPxBounds3V@physx@@VNamedAllocator@shdfnd@2@@shdfnd@physx@@QEAAXI@Z 0000000180011b10 f i RTreeCooking.obj
 0001:00010b50       ?reserve@?$Array@URTreeNodeNQ@physx@@VNamedAllocator@shdfnd@2@@shdfnd@physx@@QEAAXI@Z 0000000180011b50 f i RTreeCooking.obj
 0001:00010b90       ?reserve@?$Array@URTreeNodeQ@Gu@physx@@VNamedAllocator@shdfnd@3@@shdfnd@physx@@QEAAXI@Z 0000000180011b90 f i RTreeCooking.obj
 0001:00010bd0       ?reserve@?$Array@VPxVec3@physx@@VNamedAllocator@shdfnd@2@@shdfnd@physx@@QEAAXI@Z 0000000180011bd0 f i RTreeCooking.obj
 0001:00010c10       ?resize@?$Array@IVNamedAllocator@shdfnd@physx@@@shdfnd@physx@@QEAAXIAEBI@Z 0000000180011c10 f i RTreeCooking.obj
 0001:00010cd0       ?resizeUninitialized@?$Array@URTreeNodeNQ@physx@@VNamedAllocator@shdfnd@2@@shdfnd@physx@@QEAAXI@Z 0000000180011cd0 f i RTreeCooking.obj
 0001:00010d10       ?selectMax@intrinsics@physx@@YAMMM@Z 0000000180011d10 f i RTreeCooking.obj
 0001:00010d60       ?selectMin@intrinsics@physx@@YAMMM@Z 0000000180011d60 f i RTreeCooking.obj
 0001:00010db0       ?setEmpty@PxBounds3@physx@@QEAAXXZ 0000000180011db0 f i RTreeCooking.obj
 0001:00010e20       ?setLeaf@RTreeNodeQ@Gu@physx@@QEAAX_N@Z 0000000180011e20 f i RTreeCooking.obj
 0001:00010e70       ?size@?$Array@IVNamedAllocator@shdfnd@physx@@@shdfnd@physx@@QEBAIXZ 0000000180011e70 f i RTreeCooking.obj
 0001:00010e90       ?size@?$Array@UInterval@physx@@V?$InlineAllocator@$0CA@VNamedAllocator@shdfnd@physx@@@shdfnd@2@@shdfnd@physx@@QEBAIXZ 0000000180011e90 f i RTreeCooking.obj
 0001:00010eb0       ?size@?$Array@URTreeNodeNQ@physx@@VNamedAllocator@shdfnd@2@@shdfnd@physx@@QEBAIXZ 0000000180011eb0 f i RTreeCooking.obj
 0001:00010ed0       ?size@?$Array@URTreeNodeQ@Gu@physx@@VNamedAllocator@shdfnd@3@@shdfnd@physx@@QEBAIXZ 0000000180011ed0 f i RTreeCooking.obj
 0001:00010ef0       ?size@?$Array@VPxVec3@physx@@VNamedAllocator@shdfnd@2@@shdfnd@physx@@QEBAIXZ 0000000180011ef0 f i RTreeCooking.obj
 0001:00010f10       ?sort4@SubSortQuick@physx@@QEAAXPEIAIIAEAV?$Array@URTreeNodeNQ@physx@@VNamedAllocator@shdfnd@2@@shdfnd@2@AEAIAEAUPxBounds3V@2@I@Z 0000000180011f10 f i RTreeCooking.obj
 0001:00011bc0       ?sort4@SubSortSAH@physx@@QEAAXPEAIIAEAV?$Array@URTreeNodeNQ@physx@@VNamedAllocator@shdfnd@2@@shdfnd@2@AEAIIPEAURTreeNodeNQ@2@@Z 0000000180012bc0 f i RTreeCooking.obj
 0001:00012d60       ?split@SubSortSAH@physx@@QEAAIPEAII@Z 0000000180013d60 f i RTreeCooking.obj
 0001:00014000       fabsf                      0000000180015000 f i RTreeCooking.obj
 0001:00014030       ??0TriangleMeshBuilder@physx@@QEAA@AEAVTriangleMeshData@Gu@1@AEBUPxCookingParams@1@@Z 0000000180015030 f   TriangleMeshBuilder.obj
 0001:00014090       ??1TriangleMeshBuilder@physx@@UEAA@XZ 0000000180015090 f   TriangleMeshBuilder.obj
 0001:000140c0       ?cleanMesh@TriangleMeshBuilder@physx@@QEAA_N_NPEAW4Enum@PxTriangleMeshCookingResult@2@@Z 00000001800150c0 f   TriangleMeshBuilder.obj
 0001:00014950       ?remapTopology@TriangleMeshBuilder@physx@@QEAAXPEBI@Z 0000000180015950 f   TriangleMeshBuilder.obj
 0001:00014d70       ?createSharedEdgeData@TriangleMeshBuilder@physx@@QEAAX_N0@Z 0000000180015d70 f   TriangleMeshBuilder.obj
 0001:00015630       ?recordTriangleIndices@TriangleMeshBuilder@physx@@QEAAXXZ 0000000180016630 f   TriangleMeshBuilder.obj
 0001:00015840       ?createGRBMidPhaseAndData@TriangleMeshBuilder@physx@@QEAAXI@Z 0000000180016840 f   TriangleMeshBuilder.obj
 0001:00015ba0       ?createGRBData@TriangleMeshBuilder@physx@@QEAAXXZ 0000000180016ba0 f   TriangleMeshBuilder.obj
 0001:00016010       ?loadFromDesc@TriangleMeshBuilder@physx@@QEAA_NAEBVPxTriangleMeshDesc@2@PEAW4Enum@PxTriangleMeshCookingResult@2@_N@Z 0000000180017010 f   TriangleMeshBuilder.obj
 0001:00016300       ?save@TriangleMeshBuilder@physx@@QEBA_NAEAVPxOutputStream@2@_NAEBUPxCookingParams@2@@Z 0000000180017300 f   TriangleMeshBuilder.obj
 0001:00016cf0       ?checkMeshIndicesSize@TriangleMeshBuilder@physx@@QEAAXXZ 0000000180017cf0 f   TriangleMeshBuilder.obj
 0001:00016ef0       ?computeLocalBounds@TriangleMeshBuilder@physx@@IEAAXXZ 0000000180017ef0 f   TriangleMeshBuilder.obj
 0001:00017000       ?importMesh@TriangleMeshBuilder@physx@@IEAA_NAEBVPxTriangleMeshDesc@2@AEBUPxCookingParams@2@PEAW4Enum@PxTriangleMeshCookingResult@2@_N@Z 0000000180018000 f   TriangleMeshBuilder.obj
 0001:00017690       ?releaseEdgeList@TriangleMeshBuilder@physx@@IEAAXXZ 0000000180018690 f   TriangleMeshBuilder.obj
 0001:000176f0       ?createEdgeList@TriangleMeshBuilder@physx@@IEAAXXZ 00000001800186f0 f   TriangleMeshBuilder.obj
 0001:00017880       ??0RTreeTriangleMeshBuilder@physx@@QEAA@AEBUPxCookingParams@1@@Z 0000000180018880 f   TriangleMeshBuilder.obj
 0001:000178e0       ??1RTreeTriangleMeshBuilder@physx@@UEAA@XZ 00000001800188e0 f   TriangleMeshBuilder.obj
 0001:00017920       ?createMidPhaseStructure@RTreeTriangleMeshBuilder@physx@@UEAAXXZ 0000000180018920 f   TriangleMeshBuilder.obj
 0001:00017bd0       ?saveMidPhaseStructure@RTreeTriangleMeshBuilder@physx@@UEBAXAEAVPxOutputStream@2@@Z 0000000180018bd0 f   TriangleMeshBuilder.obj
 0001:00017c10       ??0BV4TriangleMeshBuilder@physx@@QEAA@AEBUPxCookingParams@1@@Z 0000000180018c10 f   TriangleMeshBuilder.obj
 0001:00017c70       ??1BV4TriangleMeshBuilder@physx@@UEAA@XZ 0000000180018c70 f   TriangleMeshBuilder.obj
 0001:00017cb0       ?createMidPhaseStructure@BV4TriangleMeshBuilder@physx@@UEAAXXZ 0000000180018cb0 f   TriangleMeshBuilder.obj
 0001:00018160       ?saveMidPhaseStructure@BV4TriangleMeshBuilder@physx@@UEBAXAEAVPxOutputStream@2@@Z 0000000180019160 f   TriangleMeshBuilder.obj
 0001:000183b0       ?onMeshIndexFormatChange@BV4TriangleMeshBuilder@physx@@UEAAXXZ 00000001800193b0 f   TriangleMeshBuilder.obj
 0001:00018440       ?createMidPhaseStructure@BV32TriangleMeshBuilder@physx@@SAXAEBUPxCookingParams@2@AEAVTriangleMeshData@Gu@2@AEAVBV32Tree@52@@Z 0000000180019440 f   TriangleMeshBuilder.obj
 0001:00018740       ?saveMidPhaseStructure@BV32TriangleMeshBuilder@physx@@SAXPEAVBV32Tree@Gu@2@AEAVPxOutputStream@2@@Z 0000000180019740 f   TriangleMeshBuilder.obj
 0001:000191f0       ?findSharpVertices@GrbTrimeshCookerHelper@physx@@YAXAEAV?$Array@USortedNeighbor@GrbTrimeshCookerHelper@physx@@VNamedAllocator@shdfnd@3@@shdfnd@2@AEAV?$Array@USharpEdgeRange@GrbTrimeshCookerHelper@physx@@VNamedAllocator@shdfnd@3@@42@PEBUuint3@2@PEBUuint4@2@II@Z 000000018001a1f0 f   TriangleMeshBuilder.obj
 0001:00019700       ?buildVertexConnectionNew_p1@GrbTrimeshCookerHelper@physx@@YAIAEAV?$Array@USortedNeighbor@GrbTrimeshCookerHelper@physx@@VNamedAllocator@shdfnd@3@@shdfnd@2@AEAV?$Array@USharpEdgeRange@GrbTrimeshCookerHelper@physx@@VNamedAllocator@shdfnd@3@@42@PEBUuint3@2@PEBUuint4@2@II@Z 000000018001a700 f   TriangleMeshBuilder.obj
 0001:000197a0       ?buildVertexConnectionNew_p2@GrbTrimeshCookerHelper@physx@@YAXPEAI00AEAV?$Array@USortedNeighbor@GrbTrimeshCookerHelper@physx@@VNamedAllocator@shdfnd@3@@shdfnd@2@AEAV?$Array@USharpEdgeRange@GrbTrimeshCookerHelper@physx@@VNamedAllocator@shdfnd@3@@42@I@Z 000000018001a7a0 f   TriangleMeshBuilder.obj
 0001:0001b240       ??$?2V?$ReflectionAllocator@VBV32Tree@Gu@physx@@@shdfnd@physx@@@UserAllocated@shdfnd@physx@@SAPEAX_KV?$ReflectionAllocator@VBV32Tree@Gu@physx@@@12@PEBDH@Z 000000018001c240 f i TriangleMeshBuilder.obj
 0001:0001b290       ??$?2V?$ReflectionAllocator@VEdgeListBuilder@Gu@physx@@@shdfnd@physx@@@UserAllocated@shdfnd@physx@@SAPEAX_KV?$ReflectionAllocator@VEdgeListBuilder@Gu@physx@@@12@PEBDH@Z 000000018001c290 f i TriangleMeshBuilder.obj
 0001:0001b2e0       ??$?_UE@@YAPEAX_KV?$ReflectionAllocator@E@shdfnd@physx@@PEBDH@Z 000000018001c2e0 f i TriangleMeshBuilder.obj
 0001:0001b330       ??$?_UG@@YAPEAX_KV?$ReflectionAllocator@G@shdfnd@physx@@PEBDH@Z 000000018001c330 f i TriangleMeshBuilder.obj
 0001:0001b380       ??$?_UI@@YAPEAX_KV?$ReflectionAllocator@I@shdfnd@physx@@PEBDH@Z 000000018001c380 f i TriangleMeshBuilder.obj
 0001:0001b3d0       ??$PX_UNUSED@U?$TriangleT@I@Gu@physx@@@@YAXAEBU?$TriangleT@I@Gu@physx@@@Z 000000018001c3d0 f i TriangleMeshBuilder.obj
 0001:0001b3e0       ??$median3@UEdgeTriLookup@physx@@$$CBU?$Less@UEdgeTriLookup@physx@@@shdfnd@2@@internal@shdfnd@physx@@YAXPEAUEdgeTriLookup@2@HHAEBU?$Less@UEdgeTriLookup@physx@@@12@@Z 000000018001c3e0 f i TriangleMeshBuilder.obj
 0001:0001b600       ??$median3@USortedNeighbor@GrbTrimeshCookerHelper@physx@@$$CBU?$Less@USortedNeighbor@GrbTrimeshCookerHelper@physx@@@shdfnd@3@@internal@shdfnd@physx@@YAXPEAUSortedNeighbor@GrbTrimeshCookerHelper@2@HHAEBU?$Less@USortedNeighbor@GrbTrimeshCookerHelper@physx@@@12@@Z 000000018001c600 f i TriangleMeshBuilder.obj
 0001:0001b820       ??$partition@UEdgeTriLookup@physx@@$$CBU?$Less@UEdgeTriLookup@physx@@@shdfnd@2@@internal@shdfnd@physx@@YAHPEAUEdgeTriLookup@2@HHAEBU?$Less@UEdgeTriLookup@physx@@@12@@Z 000000018001c820 f i TriangleMeshBuilder.obj
 0001:0001bac0       ??$partition@USortedNeighbor@GrbTrimeshCookerHelper@physx@@$$CBU?$Less@USortedNeighbor@GrbTrimeshCookerHelper@physx@@@shdfnd@3@@internal@shdfnd@physx@@YAHPEAUSortedNeighbor@GrbTrimeshCookerHelper@2@HHAEBU?$Less@USortedNeighbor@GrbTrimeshCookerHelper@physx@@@12@@Z 000000018001cac0 f i TriangleMeshBuilder.obj
 0001:0001bd60       ??$smallSort@UEdgeTriLookup@physx@@$$CBU?$Less@UEdgeTriLookup@physx@@@shdfnd@2@@internal@shdfnd@physx@@YAXPEAUEdgeTriLookup@2@HHAEBU?$Less@UEdgeTriLookup@physx@@@12@@Z 000000018001cd60 f i TriangleMeshBuilder.obj
 0001:0001be90       ??$smallSort@USortedNeighbor@GrbTrimeshCookerHelper@physx@@$$CBU?$Less@USortedNeighbor@GrbTrimeshCookerHelper@physx@@@shdfnd@3@@internal@shdfnd@physx@@YAXPEAUSortedNeighbor@GrbTrimeshCookerHelper@2@HHAEBU?$Less@USortedNeighbor@GrbTrimeshCookerHelper@physx@@@12@@Z 000000018001ce90 f i TriangleMeshBuilder.obj
 0001:0001bfc0       ??$sort@UEdgeTriLookup@physx@@@shdfnd@physx@@YAXPEAUEdgeTriLookup@1@I@Z 000000018001cfc0 f i TriangleMeshBuilder.obj
 0001:0001c020       ??$sort@UEdgeTriLookup@physx@@U?$Less@UEdgeTriLookup@physx@@@shdfnd@2@VNamedAllocator@42@@shdfnd@physx@@YAXPEAUEdgeTriLookup@1@IAEBU?$Less@UEdgeTriLookup@physx@@@01@AEBVNamedAllocator@01@I@Z 000000018001d020 f i TriangleMeshBuilder.obj
 0001:0001c3e0       ??$sort@USortedNeighbor@GrbTrimeshCookerHelper@physx@@@shdfnd@physx@@YAXPEAUSortedNeighbor@GrbTrimeshCookerHelper@1@I@Z 000000018001d3e0 f i TriangleMeshBuilder.obj
 0001:0001c440       ??$sort@USortedNeighbor@GrbTrimeshCookerHelper@physx@@U?$Less@USortedNeighbor@GrbTrimeshCookerHelper@physx@@@shdfnd@3@VNamedAllocator@53@@shdfnd@physx@@YAXPEAUSortedNeighbor@GrbTrimeshCookerHelper@1@IAEBU?$Less@USortedNeighbor@GrbTrimeshCookerHelper@physx@@@01@AEBVNamedAllocator@01@I@Z 000000018001d440 f i TriangleMeshBuilder.obj
 0001:0001c800       ??$swap@UEdgeTriLookup@physx@@@shdfnd@physx@@YAXAEAUEdgeTriLookup@1@0@Z 000000018001d800 f i TriangleMeshBuilder.obj
 0001:0001c870       ??$swap@USortedNeighbor@GrbTrimeshCookerHelper@physx@@@shdfnd@physx@@YAXAEAUSortedNeighbor@GrbTrimeshCookerHelper@1@0@Z 000000018001d870 f i TriangleMeshBuilder.obj
 0001:0001c8e0       ??0?$Array@IVNamedAllocator@shdfnd@physx@@@shdfnd@physx@@QEAA@AEBVNamedAllocator@12@@Z 000000018001d8e0 f i TriangleMeshBuilder.obj
 0001:0001c940       ??0?$Array@USharpEdgeRange@GrbTrimeshCookerHelper@physx@@VNamedAllocator@shdfnd@3@@shdfnd@physx@@QEAA@AEBVNamedAllocator@12@@Z 000000018001d940 f i TriangleMeshBuilder.obj
 0001:0001c9a0       ??0?$Array@USortedNeighbor@GrbTrimeshCookerHelper@physx@@VNamedAllocator@shdfnd@3@@shdfnd@physx@@QEAA@AEBVNamedAllocator@12@@Z 000000018001d9a0 f i TriangleMeshBuilder.obj
 0001:0001ca00       ??0?$PxFlags@W4Enum@PxMeshFlag@physx@@G@physx@@QEAA@AEBV01@@Z 000000018001da00 f i TriangleMeshBuilder.obj
 0001:0001ca30       ??0?$PxFlags@W4Enum@PxMeshFlag@physx@@G@physx@@QEAA@W4Enum@PxMeshFlag@1@@Z 000000018001da30 f i TriangleMeshBuilder.obj
 0001:0001ca60       ??0?$PxFlags@W4Enum@PxMeshFlag@physx@@G@physx@@QEAA@XZ 000000018001da60 f i TriangleMeshBuilder.obj
 0001:0001ca80       ??0?$PxFlags@W4Enum@PxMeshPreprocessingFlag@physx@@I@physx@@QEAA@AEBV01@@Z 000000018001da80 f i TriangleMeshBuilder.obj
 0001:0001cab0       ??0?$ReflectionAllocator@E@shdfnd@physx@@QEAA@PEBD@Z 000000018001dab0 f i TriangleMeshBuilder.obj
 0001:0001cad0       ??0?$ReflectionAllocator@G@shdfnd@physx@@QEAA@PEBD@Z 000000018001dad0 f i TriangleMeshBuilder.obj
 0001:0001caf0       ??0?$ReflectionAllocator@I@shdfnd@physx@@QEAA@PEBD@Z 000000018001daf0 f i TriangleMeshBuilder.obj
 0001:0001cb10       ??0?$ReflectionAllocator@VBV32Tree@Gu@physx@@@shdfnd@physx@@QEAA@PEBD@Z 000000018001db10 f i TriangleMeshBuilder.obj
 0001:0001cb30       ??0?$ReflectionAllocator@VEdgeListBuilder@Gu@physx@@@shdfnd@physx@@QEAA@PEBD@Z 000000018001db30 f i TriangleMeshBuilder.obj
 0001:0001cb50       ??0BV4TriangleData@Gu@physx@@QEAA@XZ 000000018001db50 f i TriangleMeshBuilder.obj
 0001:0001cbd0       ??0EDGELISTCREATE@Gu@physx@@QEAA@XZ 000000018001dbd0 f i TriangleMeshBuilder.obj
 0001:0001cc50       ??0PxPlane@physx@@QEAA@AEBVPxVec3@1@0@Z 000000018001dc50 f i TriangleMeshBuilder.obj
 0001:0001ccc0       ??0PxSimpleTriangleMesh@physx@@QEAA@AEBV01@@Z 000000018001dcc0 f i TriangleMeshBuilder.obj
 0001:0001cd40       ??0PxTriangleMeshDesc@physx@@QEAA@AEBV01@@Z 000000018001dd40 f i TriangleMeshBuilder.obj
 0001:0001cda0       ??0PxVec4@physx@@QEAA@XZ   000000018001dda0 f i TriangleMeshBuilder.obj
 0001:0001cdb0       ??0RTree@Gu@physx@@QEAA@XZ 000000018001ddb0 f i TriangleMeshBuilder.obj
 0001:0001ce70       ??0RTreeCookerRemap@physx@@QEAA@I@Z 000000018001de70 f i TriangleMeshBuilder.obj
 0001:0001cec0       ??0RTreeTriangleData@Gu@physx@@QEAA@XZ 000000018001dec0 f i TriangleMeshBuilder.obj
 0001:0001cf20       ??0RemapCallback@RTreeCooker@physx@@QEAA@XZ 000000018001df20 f i TriangleMeshBuilder.obj
 0001:0001cf40       ??0SharpEdgeRange@GrbTrimeshCookerHelper@physx@@QEAA@II@Z 000000018001df40 f i TriangleMeshBuilder.obj
 0001:0001cf80       ??0SharpEdgeRange@GrbTrimeshCookerHelper@physx@@QEAA@XZ 000000018001df80 f i TriangleMeshBuilder.obj
 0001:0001cfb0       ??0SortedNeighbor@GrbTrimeshCookerHelper@physx@@QEAA@II_N@Z 000000018001dfb0 f i TriangleMeshBuilder.obj
 0001:0001d000       ??0TriangleMeshData@Gu@physx@@QEAA@XZ 000000018001e000 f i TriangleMeshBuilder.obj
 0001:0001d170       ??1?$Array@USharpEdgeRange@GrbTrimeshCookerHelper@physx@@VNamedAllocator@shdfnd@3@@shdfnd@physx@@QEAA@XZ 000000018001e170 f i TriangleMeshBuilder.obj
 0001:0001d200       ??1?$Array@USortedNeighbor@GrbTrimeshCookerHelper@physx@@VNamedAllocator@shdfnd@3@@shdfnd@physx@@QEAA@XZ 000000018001e200 f i TriangleMeshBuilder.obj
 0001:0001d290       ??1BV4TriangleData@Gu@physx@@UEAA@XZ 000000018001e290 f i TriangleMeshBuilder.obj
 0001:0001d300       ??1RTree@Gu@physx@@QEAA@XZ 000000018001e300 f i TriangleMeshBuilder.obj
 0001:0001d320       ??1RTreeCookerRemap@physx@@UEAA@XZ 000000018001e320 f i TriangleMeshBuilder.obj
 0001:0001d340       ??1RTreeTriangleData@Gu@physx@@UEAA@XZ 000000018001e340 f i TriangleMeshBuilder.obj
 0001:0001d390       ??1RemapCallback@RTreeCooker@physx@@UEAA@XZ 000000018001e390 f i TriangleMeshBuilder.obj
 0001:0001d3b0       ??1TriangleMeshData@Gu@physx@@UEAA@XZ 000000018001e3b0 f i TriangleMeshBuilder.obj
 0001:0001d780       ??3UserAllocated@shdfnd@physx@@SAXPEAX@Z 000000018001e780 f i TriangleMeshBuilder.obj
 0001:0001d7b0       ??A?$Array@USharpEdgeRange@GrbTrimeshCookerHelper@physx@@VNamedAllocator@shdfnd@3@@shdfnd@physx@@QEAAAEAUSharpEdgeRange@GrbTrimeshCookerHelper@2@I@Z 000000018001e7b0 f i TriangleMeshBuilder.obj
 0001:0001d850       ??A?$Array@USortedNeighbor@GrbTrimeshCookerHelper@physx@@VNamedAllocator@shdfnd@3@@shdfnd@physx@@QEAAAEAUSortedNeighbor@GrbTrimeshCookerHelper@2@I@Z 000000018001e850 f i TriangleMeshBuilder.obj
 0001:0001d8f0       ??APxVec3@physx@@QEAAAEAMI@Z 000000018001e8f0 f i TriangleMeshBuilder.obj
 0001:0001d980       ??B?$PxFlags@W4Enum@PxMeshFlag@physx@@G@physx@@QEBA_NXZ 000000018001e980 f i TriangleMeshBuilder.obj
 0001:0001d9c0       ??B?$PxFlags@W4Enum@PxMeshPreprocessingFlag@physx@@I@physx@@QEBA_NXZ 000000018001e9c0 f i TriangleMeshBuilder.obj
 0001:0001d9f0       ??DPxVec3@physx@@QEBA?AV01@M@Z 000000018001e9f0 f i TriangleMeshBuilder.obj
 0001:0001da80       ??GPxVec3@physx@@QEBA?AV01@AEBV01@@Z 000000018001ea80 f i TriangleMeshBuilder.obj
 0001:0001db20       ??I?$PxFlags@W4Enum@PxMeshFlag@physx@@G@physx@@QEBA?AV01@W4Enum@PxMeshFlag@1@@Z 000000018001eb20 f i TriangleMeshBuilder.obj
 0001:0001db90       ??I?$PxFlags@W4Enum@PxMeshPreprocessingFlag@physx@@I@physx@@QEBA?AV01@W4Enum@PxMeshPreprocessingFlag@1@@Z 000000018001eb90 f i TriangleMeshBuilder.obj
 0001:0001dbf0       ??MEdgeTriLookup@physx@@QEBA_NAEBU01@@Z 000000018001ebf0 f i TriangleMeshBuilder.obj
 0001:0001dc60       ??MSortedNeighbor@GrbTrimeshCookerHelper@physx@@QEBA_NAEBU012@@Z 000000018001ec60 f i TriangleMeshBuilder.obj
 0001:0001dd20       ??NEdgeTriLookup@physx@@QEBA_NAEBU01@@Z 000000018001ed20 f i TriangleMeshBuilder.obj
 0001:0001dd90       ??R?$Less@UEdgeTriLookup@physx@@@shdfnd@physx@@QEBA_NAEBUEdgeTriLookup@2@0@Z 000000018001ed90 f i TriangleMeshBuilder.obj
 0001:0001ddc0       ??R?$Less@USortedNeighbor@GrbTrimeshCookerHelper@physx@@@shdfnd@physx@@QEBA_NAEBUSortedNeighbor@GrbTrimeshCookerHelper@2@0@Z 000000018001edc0 f i TriangleMeshBuilder.obj
 0001:0001ddf0       ??S?$PxFlags@W4Enum@PxMeshFlag@physx@@G@physx@@QEBA?AV01@XZ 000000018001edf0 f i TriangleMeshBuilder.obj
 0001:0001de40       ??Sphysx@@YA?AV?$PxFlags@W4Enum@PxMeshFlag@physx@@G@0@W4Enum@PxMeshFlag@0@@Z 000000018001ee40 f i TriangleMeshBuilder.obj
 0001:0001de80       ??_4?$PxFlags@W4Enum@PxMeshFlag@physx@@G@physx@@QEAAAEAV01@AEBV01@@Z 000000018001ee80 f i TriangleMeshBuilder.obj
 0001:0001dec0       ??_GBV32Tree@Gu@physx@@QEAAPEAXI@Z 000000018001eec0 f i TriangleMeshBuilder.obj
 0001:0001df30       ??_GBV4TriangleData@Gu@physx@@UEAAPEAXI@Z 000000018001ef30 f i TriangleMeshBuilder.obj
 0001:0001df30       ??_EBV4TriangleData@Gu@physx@@UEAAPEAXI@Z 000000018001ef30 f i TriangleMeshBuilder.obj
 0001:0001dfa0       ??_EBV4TriangleMeshBuilder@physx@@UEAAPEAXI@Z 000000018001efa0 f i TriangleMeshBuilder.obj
 0001:0001dfa0       ??_GBV4TriangleMeshBuilder@physx@@UEAAPEAXI@Z 000000018001efa0 f i TriangleMeshBuilder.obj
 0001:0001dff0       ??_GEdgeListBuilder@Gu@physx@@QEAAPEAXI@Z 000000018001eff0 f i TriangleMeshBuilder.obj
 0001:0001e060       ??_ERTreeCookerRemap@physx@@UEAAPEAXI@Z 000000018001f060 f i TriangleMeshBuilder.obj
 0001:0001e060       ??_GRTreeCookerRemap@physx@@UEAAPEAXI@Z 000000018001f060 f i TriangleMeshBuilder.obj
 0001:0001e0b0       ??_GRTreeTriangleData@Gu@physx@@UEAAPEAXI@Z 000000018001f0b0 f i TriangleMeshBuilder.obj
 0001:0001e0b0       ??_ERTreeTriangleData@Gu@physx@@UEAAPEAXI@Z 000000018001f0b0 f i TriangleMeshBuilder.obj
 0001:0001e120       ??_GRTreeTriangleMeshBuilder@physx@@UEAAPEAXI@Z 000000018001f120 f i TriangleMeshBuilder.obj
 0001:0001e120       ??_ERTreeTriangleMeshBuilder@physx@@UEAAPEAXI@Z 000000018001f120 f i TriangleMeshBuilder.obj
 0001:0001e170       ??_GRemapCallback@RTreeCooker@physx@@UEAAPEAXI@Z 000000018001f170 f i TriangleMeshBuilder.obj
 0001:0001e170       ??_ERemapCallback@RTreeCooker@physx@@UEAAPEAXI@Z 000000018001f170 f i TriangleMeshBuilder.obj
 0001:0001e1c0       ??_GTriangleMeshBuilder@physx@@UEAAPEAXI@Z 000000018001f1c0 f i TriangleMeshBuilder.obj
 0001:0001e1c0       ??_ETriangleMeshBuilder@physx@@UEAAPEAXI@Z 000000018001f1c0 f i TriangleMeshBuilder.obj
 0001:0001e210       ??_GTriangleMeshData@Gu@physx@@UEAAPEAXI@Z 000000018001f210 f i TriangleMeshBuilder.obj
 0001:0001e210       ??_ETriangleMeshData@Gu@physx@@UEAAPEAXI@Z 000000018001f210 f i TriangleMeshBuilder.obj
 0001:0001e280       ?HasActiveEdge01@EdgeTriangleAC@Gu@physx@@SAHAEBUEdgeTriangleData@23@@Z 000000018001f280 f i TriangleMeshBuilder.obj
 0001:0001e2b0       ?HasActiveEdge12@EdgeTriangleAC@Gu@physx@@SAHAEBUEdgeTriangleData@23@@Z 000000018001f2b0 f i TriangleMeshBuilder.obj
 0001:0001e2e0       ?HasActiveEdge20@EdgeTriangleAC@Gu@physx@@SAHAEBUEdgeTriangleData@23@@Z 000000018001f2e0 f i TriangleMeshBuilder.obj
 0001:0001e310       ?LeafSetData@Gu@physx@@YAIII@Z 000000018001f310 f i TriangleMeshBuilder.obj
 0001:0001e420       ?PxRecipSqrt@physx@@YAMM@Z 000000018001f420 f i TriangleMeshBuilder.obj
 0001:0001e440       ?SetData@LeafTriangles@Gu@physx@@QEAAXII@Z 000000018001f440 f i TriangleMeshBuilder.obj
 0001:0001e480       ?WriteDwordBuffer@physx@@YAXPEBII_NAEAVPxOutputStream@1@@Z 000000018001f480 f i TriangleMeshBuilder.obj
 0001:0001e4d0       ?allocate@?$Array@USharpEdgeRange@GrbTrimeshCookerHelper@physx@@VNamedAllocator@shdfnd@3@@shdfnd@physx@@IEAAPEAUSharpEdgeRange@GrbTrimeshCookerHelper@3@I@Z 000000018001f4d0 f i TriangleMeshBuilder.obj
 0001:0001e580       ?allocate@?$Array@USortedNeighbor@GrbTrimeshCookerHelper@physx@@VNamedAllocator@shdfnd@3@@shdfnd@physx@@IEAAPEAUSortedNeighbor@GrbTrimeshCookerHelper@3@I@Z 000000018001f580 f i TriangleMeshBuilder.obj
 0001:0001e630       ?allocate@?$ReflectionAllocator@E@shdfnd@physx@@QEAAPEAX_KPEBDH@Z 000000018001f630 f i TriangleMeshBuilder.obj
 0001:0001e6d0       ?allocate@?$ReflectionAllocator@G@shdfnd@physx@@QEAAPEAX_KPEBDH@Z 000000018001f6d0 f i TriangleMeshBuilder.obj
 0001:0001e770       ?allocate@?$ReflectionAllocator@I@shdfnd@physx@@QEAAPEAX_KPEBDH@Z 000000018001f770 f i TriangleMeshBuilder.obj
 0001:0001e810       ?allocate@?$ReflectionAllocator@VBV32Tree@Gu@physx@@@shdfnd@physx@@QEAAPEAX_KPEBDH@Z 000000018001f810 f i TriangleMeshBuilder.obj
 0001:0001e8b0       ?allocate@?$ReflectionAllocator@VEdgeListBuilder@Gu@physx@@@shdfnd@physx@@QEAAPEAX_KPEBDH@Z 000000018001f8b0 f i TriangleMeshBuilder.obj
 0001:0001e950       ?allocateMaterials@TriangleMeshData@Gu@physx@@QEAAPEAGXZ 000000018001f950 f i TriangleMeshBuilder.obj
 0001:0001eac0       ?allocateTriangles@TriangleMeshData@Gu@physx@@QEAAPEAXI_NI@Z 000000018001fac0 f i TriangleMeshBuilder.obj
 0001:0001ed90       ?allocateVertices@TriangleMeshData@Gu@physx@@QEAAPEAVPxVec3@3@I@Z 000000018001fd90 f i TriangleMeshBuilder.obj
 0001:0001eea0       ?begin@?$Array@USortedNeighbor@GrbTrimeshCookerHelper@physx@@VNamedAllocator@shdfnd@3@@shdfnd@physx@@QEAAPEAUSortedNeighbor@GrbTrimeshCookerHelper@3@XZ 000000018001fea0 f i TriangleMeshBuilder.obj
 0001:0001eec0       ?capacity@?$Array@USharpEdgeRange@GrbTrimeshCookerHelper@physx@@VNamedAllocator@shdfnd@3@@shdfnd@physx@@QEBAIXZ 000000018001fec0 f i TriangleMeshBuilder.obj
 0001:0001eee0       ?capacity@?$Array@USortedNeighbor@GrbTrimeshCookerHelper@physx@@VNamedAllocator@shdfnd@3@@shdfnd@physx@@QEBAIXZ 000000018001fee0 f i TriangleMeshBuilder.obj
 0001:0001ef00       ?capacityIncrement@?$Array@USortedNeighbor@GrbTrimeshCookerHelper@physx@@VNamedAllocator@shdfnd@3@@shdfnd@physx@@IEBAIXZ 000000018001ff00 f i TriangleMeshBuilder.obj
 0001:0001ef50       ?copy@?$Array@USharpEdgeRange@GrbTrimeshCookerHelper@physx@@VNamedAllocator@shdfnd@3@@shdfnd@physx@@KAXPEAUSharpEdgeRange@GrbTrimeshCookerHelper@3@0PEBU453@@Z 000000018001ff50 f i TriangleMeshBuilder.obj
 0001:0001f030       ?copy@?$Array@USortedNeighbor@GrbTrimeshCookerHelper@physx@@VNamedAllocator@shdfnd@3@@shdfnd@physx@@KAXPEAUSortedNeighbor@GrbTrimeshCookerHelper@3@0PEBU453@@Z 0000000180020030 f i TriangleMeshBuilder.obj
 0001:0001f120       ?create@?$Array@USharpEdgeRange@GrbTrimeshCookerHelper@physx@@VNamedAllocator@shdfnd@3@@shdfnd@physx@@KAXPEAUSharpEdgeRange@GrbTrimeshCookerHelper@3@0AEBU453@@Z 0000000180020120 f i TriangleMeshBuilder.obj
 0001:0001f1f0       ?cross@PxVec3@physx@@QEBA?AV12@AEBV12@@Z 00000001800201f0 f i TriangleMeshBuilder.obj
 0001:0001f2e0       ?deallocate@?$AlignedAllocator@$0IA@VNonTrackingAllocator@shdfnd@physx@@@shdfnd@physx@@QEAAXPEAX@Z 00000001800202e0 f i TriangleMeshBuilder.obj
 0001:0001f350       ?deallocate@?$Array@USharpEdgeRange@GrbTrimeshCookerHelper@physx@@VNamedAllocator@shdfnd@3@@shdfnd@physx@@IEAAXPEAX@Z 0000000180020350 f i TriangleMeshBuilder.obj
 0001:0001f380       ?deallocate@?$Array@USortedNeighbor@GrbTrimeshCookerHelper@physx@@VNamedAllocator@shdfnd@3@@shdfnd@physx@@IEAAXPEAX@Z 0000000180020380 f i TriangleMeshBuilder.obj
 0001:0001f3b0       ?deallocate@NonTrackingAllocator@shdfnd@physx@@QEAAXPEAX@Z 00000001800203b0 f i TriangleMeshBuilder.obj
 0001:0001f400       ?destroy@?$Array@USharpEdgeRange@GrbTrimeshCookerHelper@physx@@VNamedAllocator@shdfnd@3@@shdfnd@physx@@KAXPEAUSharpEdgeRange@GrbTrimeshCookerHelper@3@0@Z 0000000180020400 f i TriangleMeshBuilder.obj
 0001:0001f450       ?destroy@?$Array@USortedNeighbor@GrbTrimeshCookerHelper@physx@@VNamedAllocator@shdfnd@3@@shdfnd@physx@@KAXPEAUSortedNeighbor@GrbTrimeshCookerHelper@3@0@Z 0000000180020450 f i TriangleMeshBuilder.obj
 0001:0001f4a0       ?distance@PxPlane@physx@@QEBAMAEBVPxVec3@2@@Z 00000001800204a0 f i TriangleMeshBuilder.obj
 0001:0001f4e0       ?dot@PxVec3@physx@@QEBAMAEBV12@@Z 00000001800204e0 f i TriangleMeshBuilder.obj
 0001:0001f540       ?findEdgeCCW@?$TriangleT@I@Gu@physx@@QEBAEII@Z 0000000180020540 f i TriangleMeshBuilder.obj
 0001:0001f6f0       ?gatherStrided@Cooking@physx@@SAXPEBXPEAXIII@Z 00000001800206f0 f i TriangleMeshBuilder.obj
 0001:0001f7a0       ?getEdgeToTriangles@EdgeList@Gu@physx@@QEBAPEBUEdgeDescData@23@XZ 00000001800207a0 f i TriangleMeshBuilder.obj
 0001:0001f7c0       ?getEdgeTriangle@EdgeList@Gu@physx@@QEBAAEBUEdgeTriangleData@23@I@Z 00000001800207c0 f i TriangleMeshBuilder.obj
 0001:0001f7f0       ?getEdges@EdgeList@Gu@physx@@QEBAPEBUEdgeData@23@XZ 00000001800207f0 f i TriangleMeshBuilder.obj
 0001:0001f810       ?getFacesByEdges@EdgeList@Gu@physx@@QEBAPEBIXZ 0000000180020810 f i TriangleMeshBuilder.obj
 0001:0001f830       ?getFoundation@shdfnd@physx@@YAAEAVFoundation@12@XZ 0000000180020830 f i TriangleMeshBuilder.obj
 0001:0001f850       ?getMidphaseID@BV4TriangleMeshBuilder@physx@@UEBA?AW4Enum@PxMeshMidPhase@2@XZ 0000000180020850 f i TriangleMeshBuilder.obj
 0001:0001f860       ?getMidphaseID@RTreeTriangleMeshBuilder@physx@@UEBA?AW4Enum@PxMeshMidPhase@2@XZ 0000000180020860 f i TriangleMeshBuilder.obj
 0001:0001f870       ?getName@?$ReflectionAllocator@E@shdfnd@physx@@CAPEBDXZ 0000000180020870 f i TriangleMeshBuilder.obj
 0001:0001f8c0       ?getName@?$ReflectionAllocator@G@shdfnd@physx@@CAPEBDXZ 00000001800208c0 f i TriangleMeshBuilder.obj
 0001:0001f910       ?getName@?$ReflectionAllocator@I@shdfnd@physx@@CAPEBDXZ 0000000180020910 f i TriangleMeshBuilder.obj
 0001:0001f960       ?getName@?$ReflectionAllocator@VBV32Tree@Gu@physx@@@shdfnd@physx@@CAPEBDXZ 0000000180020960 f i TriangleMeshBuilder.obj
 0001:0001f9b0       ?getName@?$ReflectionAllocator@VEdgeListBuilder@Gu@physx@@@shdfnd@physx@@CAPEBDXZ 00000001800209b0 f i TriangleMeshBuilder.obj
 0001:0001fa00       ?getNbEdges@EdgeList@Gu@physx@@QEBAIXZ 0000000180020a00 f i TriangleMeshBuilder.obj
 0001:0001fa10       ?getNbFaces@EdgeList@Gu@physx@@QEBAIXZ 0000000180020a10 f i TriangleMeshBuilder.obj
 0001:0001fa30       ?getNormalized@PxVec3@physx@@QEBA?AV12@XZ 0000000180020a30 f i TriangleMeshBuilder.obj
 0001:0001fae0       ?getRemap@SourceMesh@Gu@physx@@QEBAPEBIXZ 0000000180020ae0 f i TriangleMeshBuilder.obj
 0001:0001fb00       ?getType@PxMidphaseDesc@physx@@QEBA?AW4Enum@PxMeshMidPhase@2@XZ 0000000180020b00 f i TriangleMeshBuilder.obj
 0001:0001fb20       ?grow@?$Array@USharpEdgeRange@GrbTrimeshCookerHelper@physx@@VNamedAllocator@shdfnd@3@@shdfnd@physx@@IEAAXI@Z 0000000180020b20 f i TriangleMeshBuilder.obj
 0001:0001fbc0       ?grow@?$Array@USortedNeighbor@GrbTrimeshCookerHelper@physx@@VNamedAllocator@shdfnd@3@@shdfnd@physx@@IEAAXI@Z 0000000180020bc0 f i TriangleMeshBuilder.obj
 0001:0001fc60       ?growAndPushBack@?$Array@USortedNeighbor@GrbTrimeshCookerHelper@physx@@VNamedAllocator@shdfnd@3@@shdfnd@physx@@IEAAAEAUSortedNeighbor@GrbTrimeshCookerHelper@3@AEBU453@@Z 0000000180020c60 f i TriangleMeshBuilder.obj
 0001:0001fea0       ?has16BitIndices@TriangleMeshData@Gu@physx@@QEBA_NXZ 0000000180020ea0 f i TriangleMeshBuilder.obj
 0001:0001fee0       ?initRemap@SourceMesh@Gu@physx@@QEAAXXZ 0000000180020ee0 f i TriangleMeshBuilder.obj
 0001:0001ff00       ?isArrayOfPOD@?$Array@USharpEdgeRange@GrbTrimeshCookerHelper@physx@@VNamedAllocator@shdfnd@3@@shdfnd@physx@@SA_NXZ 0000000180020f00 f i TriangleMeshBuilder.obj
 0001:0001ff10       ?isArrayOfPOD@?$Array@USortedNeighbor@GrbTrimeshCookerHelper@physx@@VNamedAllocator@shdfnd@3@@shdfnd@physx@@SA_NXZ 0000000180020f10 f i TriangleMeshBuilder.obj
 0001:0001ff20       ?isInUserMemory@?$Array@USharpEdgeRange@GrbTrimeshCookerHelper@physx@@VNamedAllocator@shdfnd@3@@shdfnd@physx@@QEBAIXZ 0000000180020f20 f i TriangleMeshBuilder.obj
 0001:0001ff40       ?isInUserMemory@?$Array@USortedNeighbor@GrbTrimeshCookerHelper@physx@@VNamedAllocator@shdfnd@3@@shdfnd@physx@@QEBAIXZ 0000000180020f40 f i TriangleMeshBuilder.obj
 0001:0001ff60       ?isValid@PxBVH33MidphaseDesc@physx@@QEBA_NXZ 0000000180020f60 f i TriangleMeshBuilder.obj
 0001:0001ffa0       ?isValid@PxBVH34MidphaseDesc@physx@@QEBA_NXZ 0000000180020fa0 f i TriangleMeshBuilder.obj
 0001:0001ffd0       ?isValid@PxMidphaseDesc@physx@@QEBA_NXZ 0000000180020fd0 f i TriangleMeshBuilder.obj
 0001:00020030       ?isValid@PxSimpleTriangleMesh@physx@@QEBA_NXZ 0000000180021030 f i TriangleMeshBuilder.obj
 0001:00020140       ?isValid@PxTriangleMeshDesc@physx@@QEBA_NXZ 0000000180021140 f i TriangleMeshBuilder.obj
 0001:000201d0       ?isZeroInit@?$Array@USharpEdgeRange@GrbTrimeshCookerHelper@physx@@VNamedAllocator@shdfnd@3@@shdfnd@physx@@KA_NAEBUSharpEdgeRange@GrbTrimeshCookerHelper@3@@Z 00000001800211d0 f i TriangleMeshBuilder.obj
 0001:00020250       ?littleEndian@shdfnd@physx@@YADXZ 0000000180021250 f i TriangleMeshBuilder.obj
 0001:00020270       ?magnitudeSquared@PxVec3@physx@@QEBAMXZ 0000000180021270 f i TriangleMeshBuilder.obj
 0001:000202d0       ?name@type_info@@QEBAPEBDXZ 00000001800212d0 f i TriangleMeshBuilder.obj
 0001:00020300       ?onMeshIndexFormatChange@TriangleMeshBuilder@physx@@UEAAXXZ 0000000180021300 f i TriangleMeshBuilder.obj
 0001:00020310       ?pushBack@?$Array@USortedNeighbor@GrbTrimeshCookerHelper@physx@@VNamedAllocator@shdfnd@3@@shdfnd@physx@@QEAAAEAUSortedNeighbor@GrbTrimeshCookerHelper@3@AEBU453@@Z 0000000180021310 f i TriangleMeshBuilder.obj
 0001:000203e0       ?recipSqrt@intrinsics@physx@@YAMM@Z 00000001800213e0 f i TriangleMeshBuilder.obj
 0001:00020420       ?recreate@?$Array@USharpEdgeRange@GrbTrimeshCookerHelper@physx@@VNamedAllocator@shdfnd@3@@shdfnd@physx@@IEAAXI@Z 0000000180021420 f i TriangleMeshBuilder.obj
 0001:00020580       ?recreate@?$Array@USortedNeighbor@GrbTrimeshCookerHelper@physx@@VNamedAllocator@shdfnd@3@@shdfnd@physx@@IEAAXI@Z 0000000180021580 f i TriangleMeshBuilder.obj
 0001:000206e0       ?release@RTree@Gu@physx@@QEAAXXZ 00000001800216e0 f i TriangleMeshBuilder.obj
 0001:00020760       ?releaseRemap@SourceMesh@Gu@physx@@QEAAXXZ 0000000180021760 f i TriangleMeshBuilder.obj
 0001:000207b0       ?remap@RTreeCookerRemap@physx@@UEAAXPEAIII@Z 00000001800217b0 f i TriangleMeshBuilder.obj
 0001:00020a20       ?reserve@?$Array@USharpEdgeRange@GrbTrimeshCookerHelper@physx@@VNamedAllocator@shdfnd@3@@shdfnd@physx@@QEAAXI@Z 0000000180021a20 f i TriangleMeshBuilder.obj
 0001:00020a60       ?reserve@?$Array@USortedNeighbor@GrbTrimeshCookerHelper@physx@@VNamedAllocator@shdfnd@3@@shdfnd@physx@@QEAAXI@Z 0000000180021a60 f i TriangleMeshBuilder.obj
 0001:00020aa0       ?resize@?$Array@USharpEdgeRange@GrbTrimeshCookerHelper@physx@@VNamedAllocator@shdfnd@3@@shdfnd@physx@@QEAAXIAEBUSharpEdgeRange@GrbTrimeshCookerHelper@3@@Z 0000000180021aa0 f i TriangleMeshBuilder.obj
 0001:00020b60       ?resizeUninitialized@?$Array@USortedNeighbor@GrbTrimeshCookerHelper@physx@@VNamedAllocator@shdfnd@3@@shdfnd@physx@@QEAAXI@Z 0000000180021b60 f i TriangleMeshBuilder.obj
 0001:00020ba0       ?setNbTriangles@SourceMesh@Gu@physx@@QEAAXI@Z 0000000180021ba0 f i TriangleMeshBuilder.obj
 0001:00020bc0       ?setNbVertices@SourceMesh@Gu@physx@@QEAAXI@Z 0000000180021bc0 f i TriangleMeshBuilder.obj
 0001:00020be0       ?setPointers@SourceMesh@Gu@physx@@QEAAXPEAVIndTri32@23@PEAVIndTri16@23@PEBVPxVec3@3@@Z 0000000180021be0 f i TriangleMeshBuilder.obj
 0001:00020c30       ?setTriangleAdjacency@TriangleMeshData@Gu@physx@@QEAAXIII@Z 0000000180021c30 f i TriangleMeshBuilder.obj
 0001:00020ce0       ?size@?$Array@USortedNeighbor@GrbTrimeshCookerHelper@physx@@VNamedAllocator@shdfnd@3@@shdfnd@physx@@QEBAIXZ 0000000180021ce0 f i TriangleMeshBuilder.obj
 0001:00020d00       ?to16@shdfnd@physx@@YAGI@Z 0000000180021d00 f i TriangleMeshBuilder.obj
 0001:00020d80       ?writeChunk@physx@@YAXCCCCAEAVPxOutputStream@1@@Z 0000000180021d80 f i TriangleMeshBuilder.obj
 0001:00020e30       ?writeIntBuffer@physx@@YAXPEBII_NAEAVPxOutputStream@1@@Z 0000000180021e30 f i TriangleMeshBuilder.obj
 0001:00020e80       ??0BigConvexDataBuilder@physx@@QEAA@PEBUConvexHullData@Gu@1@PEAVBigConvexData@1@PEBVPxVec3@1@@Z 0000000180021e80 f   BigConvexDataBuilder.obj
 0001:00020ed0       ??1BigConvexDataBuilder@physx@@QEAA@XZ 0000000180021ed0 f   BigConvexDataBuilder.obj
 0001:00020ee0       ?precompute@BigConvexDataBuilder@physx@@QEAA_NI@Z 0000000180021ee0 f   BigConvexDataBuilder.obj
 0001:00021500       ?initialize@BigConvexDataBuilder@physx@@QEAA_NXZ 0000000180022500 f   BigConvexDataBuilder.obj
 0001:00021570       ?save@BigConvexDataBuilder@physx@@QEBA_NAEAVPxOutputStream@2@_N@Z 0000000180022570 f   BigConvexDataBuilder.obj
 0001:000216a0       ?computeValencies@BigConvexDataBuilder@physx@@QEAA_NAEBVConvexHullBuilder@2@@Z 00000001800226a0 f   BigConvexDataBuilder.obj
 0001:00021f00       ?saveValencies@BigConvexDataBuilder@physx@@QEBA_NAEAVPxOutputStream@2@_N@Z 0000000180022f00 f   BigConvexDataBuilder.obj
 0001:00022600       ??$?_UUValency@Gu@physx@@@@YAPEAX_KV?$ReflectionAllocator@UValency@Gu@physx@@@shdfnd@physx@@PEBDH@Z 0000000180023600 f i BigConvexDataBuilder.obj
 0001:00022650       ??0?$ReflectionAllocator@UValency@Gu@physx@@@shdfnd@physx@@QEAA@PEBD@Z 0000000180023650 f i BigConvexDataBuilder.obj
 0001:00022670       ??B?$PxBitAndDataT@G$0IAAA@@physx@@QEBAGXZ 0000000180023670 f i BigConvexDataBuilder.obj
 0001:00022690       ??_0PxVec3@physx@@QEAAAEAV01@M@Z 0000000180023690 f i BigConvexDataBuilder.obj
 0001:00022720       ?PxMemZero@physx@@YAPEAXPEAXI@Z 0000000180023720 f i BigConvexDataBuilder.obj
 0001:00022750       ?PxSqrt@physx@@YAMM@Z      0000000180023750 f i BigConvexDataBuilder.obj
 0001:00022770       ?allocate@?$ReflectionAllocator@UValency@Gu@physx@@@shdfnd@physx@@QEAAPEAX_KPEBDH@Z 0000000180023770 f i BigConvexDataBuilder.obj
 0001:00022810       ?getName@?$ReflectionAllocator@UValency@Gu@physx@@@shdfnd@physx@@CAPEBDXZ 0000000180023810 f i BigConvexDataBuilder.obj
 0001:00022860       ?magnitude@PxVec3@physx@@QEBAMXZ 0000000180023860 f i BigConvexDataBuilder.obj
 0001:00022890       ?normalize@PxVec3@physx@@QEAAMXZ 0000000180023890 f i BigConvexDataBuilder.obj
 0001:000228f0       ?precomputeSample@BigConvexDataBuilder@physx@@IEAAXAEBVPxVec3@2@AEAEM@Z 00000001800238f0 f i BigConvexDataBuilder.obj
 0001:00022bb0       ?sqrt@intrinsics@physx@@YAMM@Z 0000000180023bb0 f i BigConvexDataBuilder.obj
 0001:00022c60       ??0ConvexHullBuilder@physx@@QEAA@PEAUConvexHullData@Gu@1@_N@Z 0000000180023c60 f   ConvexHullBuilder.obj
 0001:00022cf0       ??1ConvexHullBuilder@physx@@QEAA@XZ 0000000180023cf0 f   ConvexHullBuilder.obj
 0001:00022e30       ?init@ConvexHullBuilder@physx@@QEAA_NIPEBVPxVec3@2@PEBIIIPEBUPxHullPolygon@2@_NPEAVConvexHullLib@2@@Z 0000000180023e30 f   ConvexHullBuilder.obj
 0001:00023700       ?save@ConvexHullBuilder@physx@@QEBA_NAEAVPxOutputStream@2@_N@Z 0000000180024700 f   ConvexHullBuilder.obj
 0001:00023b30       ?copy@ConvexHullBuilder@physx@@QEAA_NAEAUConvexHullData@Gu@2@AEAI@Z 0000000180024b30 f   ConvexHullBuilder.obj
 0001:000242c0       ?createEdgeList@ConvexHullBuilder@physx@@QEAA_N_NI@Z 00000001800252c0 f   ConvexHullBuilder.obj
 0001:000250c0       ?checkHullPolygons@ConvexHullBuilder@physx@@QEBA_NXZ 00000001800260c0 f   ConvexHullBuilder.obj
 0001:00025970       ?calculateVertexMapTable@ConvexHullBuilder@physx@@QEAA_NI_N@Z 0000000180026970 f   ConvexHullBuilder.obj
 0001:00025c20       ?computeGeomCenter@ConvexHullBuilder@physx@@IEBA_NAEAVPxVec3@2@IPEAUHullTriangleData@2@@Z 0000000180026c20 f   ConvexHullBuilder.obj
 0001:00026a40       ??$?_UUEdgeDescData@Gu@physx@@@@YAPEAX_KV?$ReflectionAllocator@UEdgeDescData@Gu@physx@@@shdfnd@physx@@PEBDH@Z 0000000180027a40 f i ConvexHullBuilder.obj
 0001:00026a90       ??$?_U_N@@YAPEAX_KV?$ReflectionAllocator@_N@shdfnd@physx@@PEBDH@Z 0000000180027a90 f i ConvexHullBuilder.obj
 0001:00026ae0       ??0?$PxBitAndDataT@G$0IAAA@@physx@@QEAA@G_N@Z 0000000180027ae0 f i ConvexHullBuilder.obj
 0001:00026b40       ??0?$ReflectionAllocator@UEdgeDescData@Gu@physx@@@shdfnd@physx@@QEAA@PEBD@Z 0000000180027b40 f i ConvexHullBuilder.obj
 0001:00026b60       ??0?$ReflectionAllocator@_N@shdfnd@physx@@QEAA@PEBD@Z 0000000180027b60 f i ConvexHullBuilder.obj
 0001:00026b80       ??0?$TriangleT@I@Gu@physx@@QEAA@III@Z 0000000180027b80 f i ConvexHullBuilder.obj
 0001:00026bf0       ??0HullPolygonData@Gu@physx@@QEAA@AEBU012@@Z 0000000180027bf0 f i ConvexHullBuilder.obj
 0001:00026c70       ??0PxPlane@physx@@QEAA@AEBV01@@Z 0000000180027c70 f i ConvexHullBuilder.obj
 0001:00026cc0       ??0PxPlane@physx@@QEAA@MMMM@Z 0000000180027cc0 f i ConvexHullBuilder.obj
 0001:00026d30       ??4PxPlane@physx@@QEAAAEAV01@$$QEAV01@@Z 0000000180027d30 f i ConvexHullBuilder.obj
 0001:00026d80       ??YPxVec3@physx@@QEAAAEAV01@AEBV01@@Z 0000000180027d80 f i ConvexHullBuilder.obj
 0001:00026e00       ?PxMemSet@physx@@YAPEAXPEAXHI@Z 0000000180027e00 f i ConvexHullBuilder.obj
 0001:00026e40       ?allocate@?$ReflectionAllocator@UEdgeDescData@Gu@physx@@@shdfnd@physx@@QEAAPEAX_KPEBDH@Z 0000000180027e40 f i ConvexHullBuilder.obj
 0001:00026ee0       ?allocate@?$ReflectionAllocator@_N@shdfnd@physx@@QEAAPEAX_KPEBDH@Z 0000000180027ee0 f i ConvexHullBuilder.obj
 0001:00026f80       ?area@?$TriangleT@I@Gu@physx@@QEBAMPEBVPxVec3@3@@Z 0000000180027f80 f i ConvexHullBuilder.obj
 0001:000270a0       ?center@?$TriangleT@I@Gu@physx@@QEBAXPEBVPxVec3@3@AEAV43@@Z 00000001800280a0 f i ConvexHullBuilder.obj
 0001:000271b0       ?computeBufferSize@Gu@physx@@YAIAEBUConvexHullData@12@I@Z 00000001800281b0 f i ConvexHullBuilder.obj
 0001:00027310       ?computeNbPolygons@ConvexHullBuilder@physx@@QEBAIXZ 0000000180028310 f i ConvexHullBuilder.obj
 0001:000273b0       ?flip@physx@@YAXAEAG@Z     00000001800283b0 f i ConvexHullBuilder.obj
 0001:00027430       ?flip@physx@@YAXAEAM@Z     0000000180028430 f i ConvexHullBuilder.obj
 0001:00027520       ?flipData@Gu@physx@@YAXAEAUHullPolygonData@12@@Z 0000000180028520 f i ConvexHullBuilder.obj
 0001:000275a0       ?getName@?$ReflectionAllocator@UEdgeDescData@Gu@physx@@@shdfnd@physx@@CAPEBDXZ 00000001800285a0 f i ConvexHullBuilder.obj
 0001:000275f0       ?getName@?$ReflectionAllocator@_N@shdfnd@physx@@CAPEBDXZ 00000001800285f0 f i ConvexHullBuilder.obj
 0001:00027640       ?isBitSet@?$PxBitAndDataT@G$0IAAA@@physx@@QEBAGXZ 0000000180028640 f i ConvexHullBuilder.obj
 0001:00027660       ?memSet@intrinsics@physx@@YAPEAXPEAXHI@Z 0000000180028660 f i ConvexHullBuilder.obj
 0001:000276a0       ?to8@shdfnd@physx@@YAEI@Z  00000001800286a0 f i ConvexHullBuilder.obj
 0001:00027720       ??1ConvexHullLib@physx@@UEAA@XZ 0000000180028720 f   ConvexHullLib.obj
 0001:000277a0       ?cleanupVertices@ConvexHullLib@physx@@IEAA_NIPEBVPxVec3@2@IAEAIPEAV32@AEAV32@3@Z 00000001800287a0 f   ConvexHullLib.obj
 0001:00027e70       ?shiftAndcleanupVertices@ConvexHullLib@physx@@IEAA_NIPEBVPxVec3@2@IAEAIPEAV32@AEAV32@3@Z 0000000180028e70 f   ConvexHullLib.obj
 0001:00028080       ?swapLargestFace@ConvexHullLib@physx@@IEAAXAEAVPxConvexMeshDesc@2@@Z 0000000180029080 f   ConvexHullLib.obj
 0001:00028470       ?shiftConvexMeshDesc@ConvexHullLib@physx@@IEAAXAEAVPxConvexMeshDesc@2@@Z 0000000180029470 f   ConvexHullLib.obj
 0001:00029210       ??0?$PxFlags@W4Enum@PxConvexFlag@physx@@G@physx@@QEAA@AEBV01@@Z 000000018002a210 f i ConvexHullLib.obj
 0001:00029240       ??0PxBounds3@physx@@QEAA@XZ 000000018002a240 f i ConvexHullLib.obj
 0001:00029280       ??B?$PxFlags@W4Enum@PxConvexFlag@physx@@G@physx@@QEBA_NXZ 000000018002a280 f i ConvexHullLib.obj
 0001:000292c0       ??I?$PxFlags@W4Enum@PxConvexFlag@physx@@G@physx@@QEBA?AV01@W4Enum@PxConvexFlag@1@@Z 000000018002a2c0 f i ConvexHullLib.obj
 0001:00029330       ??_GConvexHullLib@physx@@UEAAPEAXI@Z 000000018002a330 f i ConvexHullLib.obj
 0001:00029330       ??_EConvexHullLib@physx@@UEAAPEAXI@Z 000000018002a330 f i ConvexHullLib.obj
 0001:00029380       ?getCenter@PxBounds3@physx@@QEBA?AVPxVec3@2@XZ 000000018002a380 f i ConvexHullLib.obj
 0001:00029450       ?getDimensions@PxBounds3@physx@@QEBA?AVPxVec3@2@XZ 000000018002a450 f i ConvexHullLib.obj
 0001:00029500       ?include@PxBounds3@physx@@QEAAXAEBVPxVec3@2@@Z 000000018002a500 f i ConvexHullLib.obj
 0001:000295f0       ?maximum@PxVec3@physx@@QEBA?AV12@AEBV12@@Z 000000018002a5f0 f i ConvexHullLib.obj
 0001:000296b0       ?minimum@PxVec3@physx@@QEBA?AV12@AEBV12@@Z 000000018002a6b0 f i ConvexHullLib.obj
 0001:00029770       ?multiply@PxVec3@physx@@QEBA?AV12@AEBV12@@Z 000000018002a770 f i ConvexHullLib.obj
 0001:00029810       ??0ConvexHull@physx@@QEAA@AEBVPxVec3@1@0AEBV?$Array@VPxPlane@physx@@VNamedAllocator@shdfnd@2@@shdfnd@1@@Z 000000018002a810 f   ConvexHullUtils.obj
 0001:0002a0c0       ??0ConvexHull@physx@@QEAA@AEBVPxVec3@1@AEBVPxTransform@1@AEBV?$Array@VPxPlane@physx@@VNamedAllocator@shdfnd@2@@shdfnd@1@@Z 000000018002b0c0 f   ConvexHullUtils.obj
 0001:0002aaf0       ?findCandidatePlane@ConvexHull@physx@@QEBAHMM@Z 000000018002baf0 f   ConvexHullUtils.obj
 0001:0002aef0       ?assertIntact@ConvexHull@physx@@QEBA_NM@Z 000000018002bef0 f   ConvexHullUtils.obj
 0001:0002b6f0       ?maxNumVertsPerFace@ConvexHull@physx@@QEBAIXZ 000000018002c6f0 f   ConvexHullUtils.obj
 0001:0002b7c0       ?convexHullCrop@physx@@YAPEAVConvexHull@1@AEBV21@AEBVPxPlane@1@M@Z 000000018002c7c0 f   ConvexHullUtils.obj
 0001:0002ce40       ?computeOBBFromConvex@physx@@YA_NAEBVPxConvexMeshDesc@1@AEAVPxVec3@1@AEAVPxTransform@1@@Z 000000018002de40 f   ConvexHullUtils.obj
 0001:0002d790       ?computeOBBSIMD@local@@YAXIPEBT__m128@@AEAT2@AEBT2@1@Z 000000018002e790 f   ConvexHullUtils.obj
 0001:0002ef60       ??$?2V?$ReflectionAllocator@VConvexHull@physx@@@shdfnd@physx@@@UserAllocated@shdfnd@physx@@SAPEAX_KV?$ReflectionAllocator@VConvexHull@physx@@@12@PEBDH@Z 000000018002ff60 f i ConvexHullUtils.obj
 0001:0002efb0       ??$PX_UNUSED@W4PxIDENTITY@physx@@@@YAXAEBW4PxIDENTITY@physx@@@Z 000000018002ffb0 f i ConvexHullUtils.obj
 0001:0002efc0       ??0?$Array@VHalfEdge@ConvexHull@physx@@VNamedAllocator@shdfnd@3@@shdfnd@physx@@QEAA@AEBVNamedAllocator@12@@Z 000000018002ffc0 f i ConvexHullUtils.obj
 0001:0002f020       ??0?$Array@VPxPlane@physx@@VNamedAllocator@shdfnd@2@@shdfnd@physx@@QEAA@AEBVNamedAllocator@12@@Z 0000000180030020 f i ConvexHullUtils.obj
 0001:0002f080       ??0?$PxFlags@W4Enum@PxConvexFlag@physx@@G@physx@@QEAA@XZ 0000000180030080 f i ConvexHullUtils.obj
 0001:0002f0a0       ??0?$ReflectionAllocator@VConvexHull@physx@@@shdfnd@physx@@QEAA@PEBD@Z 00000001800300a0 f i ConvexHullUtils.obj
 0001:0002f0c0       ??0ConvexHull@physx@@QEAA@AEBV01@@Z 00000001800300c0 f i ConvexHullUtils.obj
 0001:0002f1a0       ??0ConvexHull@physx@@QEAA@AEBV?$Array@VPxPlane@physx@@VNamedAllocator@shdfnd@2@@shdfnd@1@@Z 00000001800301a0 f i ConvexHullUtils.obj
 0001:0002f270       ??0HalfEdge@ConvexHull@physx@@QEAA@FEE@Z 0000000180030270 f i ConvexHullUtils.obj
 0001:0002f2d0       ??0HalfEdge@ConvexHull@physx@@QEAA@XZ 00000001800302d0 f i ConvexHullUtils.obj
 0001:0002f2e0       ??0Mat33V@aos@shdfnd@physx@@QEAA@XZ 00000001800302e0 f i ConvexHullUtils.obj
 0001:0002f2f0       ??0PxBoundedData@physx@@QEAA@XZ 00000001800302f0 f i ConvexHullUtils.obj
 0001:0002f330       ??0PxConvexMeshDesc@physx@@QEAA@XZ 0000000180030330 f i ConvexHullUtils.obj
 0001:0002f3c0       ??0PxIntegrals@physx@@QEAA@XZ 00000001800303c0 f i ConvexHullUtils.obj
 0001:0002f3f0       ??0PxMat33@physx@@QEAA@AEBV01@@Z 00000001800303f0 f i ConvexHullUtils.obj
 0001:0002f470       ??0PxMat33@physx@@QEAA@AEBVPxQuat@1@@Z 0000000180030470 f i ConvexHullUtils.obj
 0001:0002f7b0       ??0PxMat33@physx@@QEAA@AEBVPxVec3@1@00@Z 00000001800307b0 f i ConvexHullUtils.obj
 0001:0002f830       ??0PxMat33@physx@@QEAA@W4PxIDENTITY@1@@Z 0000000180030830 f i ConvexHullUtils.obj
 0001:0002f8d0       ??0PxMat33@physx@@QEAA@XZ  00000001800308d0 f i ConvexHullUtils.obj
 0001:0002f930       ??0PxPlane@physx@@QEAA@AEBVPxVec3@1@00@Z 0000000180030930 f i ConvexHullUtils.obj
 0001:0002fa20       ??0PxPlane@physx@@QEAA@AEBVPxVec3@1@M@Z 0000000180030a20 f i ConvexHullUtils.obj
 0001:0002fa70       ??0PxPlane@physx@@QEAA@XZ  0000000180030a70 f i ConvexHullUtils.obj
 0001:0002faa0       ??0PxQuat@physx@@QEAA@MAEBVPxVec3@1@@Z 0000000180030aa0 f i ConvexHullUtils.obj
 0001:0002fc00       ??0PxQuat@physx@@QEAA@XZ   0000000180030c00 f i ConvexHullUtils.obj
 0001:0002fc10       ??0PxStridedData@physx@@QEAA@XZ 0000000180030c10 f i ConvexHullUtils.obj
 0001:0002fc40       ??4PxPlane@physx@@QEAAAEAV01@AEBV01@@Z 0000000180030c40 f i ConvexHullUtils.obj
 0001:0002fc90       ??8PxPlane@physx@@QEBA_NAEBV01@@Z 0000000180030c90 f i ConvexHullUtils.obj
 0001:0002fd00       ??8PxVec3@physx@@QEBA_NAEBV01@@Z 0000000180030d00 f i ConvexHullUtils.obj
 0001:0002fd80       ??A?$Array@VHalfEdge@ConvexHull@physx@@VNamedAllocator@shdfnd@3@@shdfnd@physx@@QEAAAEAVHalfEdge@ConvexHull@2@I@Z 0000000180030d80 f i ConvexHullUtils.obj
 0001:0002fe20       ??A?$Array@VHalfEdge@ConvexHull@physx@@VNamedAllocator@shdfnd@3@@shdfnd@physx@@QEBAAEBVHalfEdge@ConvexHull@2@I@Z 0000000180030e20 f i ConvexHullUtils.obj
 0001:0002fec0       ??A?$Array@VPxPlane@physx@@VNamedAllocator@shdfnd@2@@shdfnd@physx@@QEBAAEBVPxPlane@2@I@Z 0000000180030ec0 f i ConvexHullUtils.obj
 0001:0002ff60       ??A?$Array@VPxVec3@physx@@VNamedAllocator@shdfnd@2@@shdfnd@physx@@QEAAAEAVPxVec3@2@I@Z 0000000180030f60 f i ConvexHullUtils.obj
 0001:00030000       ??A?$Array@VPxVec3@physx@@VNamedAllocator@shdfnd@2@@shdfnd@physx@@QEBAAEBVPxVec3@2@I@Z 0000000180031000 f i ConvexHullUtils.obj
 0001:000300a0       ??APxMat33@physx@@QEAAAEAVPxVec3@1@I@Z 00000001800310a0 f i ConvexHullUtils.obj
 0001:000300d0       ??GPxVec3@physx@@QEBA?AV01@XZ 00000001800310d0 f i ConvexHullUtils.obj
 0001:00030160       ??RPxMat33@physx@@QEAAAEAMII@Z 0000000180031160 f i ConvexHullUtils.obj
 0001:000301a0       ??XPxVec3@physx@@QEAAAEAV01@M@Z 00000001800311a0 f i ConvexHullUtils.obj
 0001:00030220       ?FAdd@aos@shdfnd@physx@@YA?AT__m128@@T4@0@Z 0000000180031220 f i ConvexHullUtils.obj
 0001:00030370       ?FMul@aos@shdfnd@physx@@YA?AT__m128@@T4@0@Z 0000000180031370 f i ConvexHullUtils.obj
 0001:000304c0       ?FScaleAdd@aos@shdfnd@physx@@YA?AT__m128@@T4@00@Z 00000001800314c0 f i ConvexHullUtils.obj
 0001:00030720       ?PxCos@physx@@YAMM@Z       0000000180031720 f i ConvexHullUtils.obj
 0001:00030740       ?PxSin@physx@@YAMM@Z       0000000180031740 f i ConvexHullUtils.obj
 0001:00030760       ?QuatGetMat33V@aos@shdfnd@physx@@YAXAEBT__m128@@AEAT4@11@Z 0000000180031760 f i ConvexHullUtils.obj
 0001:00030c00       ?QuatRotateInv@aos@shdfnd@physx@@YA?AT__m128@@T4@0@Z 0000000180031c00 f i ConvexHullUtils.obj
 0001:00030f90       ?QuatVLoadU@aos@shdfnd@physx@@YA?AT__m128@@PEBM@Z 0000000180031f90 f i ConvexHullUtils.obj
 0001:00030fc0       ?V3Cross@aos@shdfnd@physx@@YA?AT__m128@@T4@0@Z 0000000180031fc0 f i ConvexHullUtils.obj
 0001:00031230       ?V3NegScaleSub@aos@shdfnd@physx@@YA?AT__m128@@T4@00@Z 0000000180032230 f i ConvexHullUtils.obj
 0001:00031490       ?V3Scale@aos@shdfnd@physx@@YA?AT__m128@@T4@0@Z 0000000180032490 f i ConvexHullUtils.obj
 0001:000315e0       ?V3ScaleAdd@aos@shdfnd@physx@@YA?AT__m128@@T4@00@Z 00000001800325e0 f i ConvexHullUtils.obj
 0001:00031840       ?V4Add@aos@shdfnd@physx@@YA?AT__m128@@T4@0@Z 0000000180032840 f i ConvexHullUtils.obj
 0001:00031880       ?V4GetW@aos@shdfnd@physx@@YA?AT__m128@@T4@@Z 0000000180032880 f i ConvexHullUtils.obj
 0001:000318b0       ?V4GetX@aos@shdfnd@physx@@YA?AT__m128@@T4@@Z 00000001800328b0 f i ConvexHullUtils.obj
 0001:000318e0       ?V4GetY@aos@shdfnd@physx@@YA?AT__m128@@T4@@Z 00000001800328e0 f i ConvexHullUtils.obj
 0001:00031910       ?V4GetZ@aos@shdfnd@physx@@YA?AT__m128@@T4@@Z 0000000180032910 f i ConvexHullUtils.obj
 0001:00031940       ?V4LoadU@aos@shdfnd@physx@@YA?AT__m128@@QEBM@Z 0000000180032940 f i ConvexHullUtils.obj
 0001:00031970       ?V4Max@aos@shdfnd@physx@@YA?AT__m128@@T4@0@Z 0000000180032970 f i ConvexHullUtils.obj
 0001:000319b0       ?V4Min@aos@shdfnd@physx@@YA?AT__m128@@T4@0@Z 00000001800329b0 f i ConvexHullUtils.obj
 0001:000319f0       ?V4Mul@aos@shdfnd@physx@@YA?AT__m128@@T4@0@Z 00000001800329f0 f i ConvexHullUtils.obj
 0001:00031a30       ?V4MulAdd@aos@shdfnd@physx@@YA?AT__m128@@T4@00@Z 0000000180032a30 f i ConvexHullUtils.obj
 0001:00031ae0       ?V4Neg@aos@shdfnd@physx@@YA?AT__m128@@T4@@Z 0000000180032ae0 f i ConvexHullUtils.obj
 0001:00031b20       ?V4Scale@aos@shdfnd@physx@@YA?AT__m128@@T4@0@Z 0000000180032b20 f i ConvexHullUtils.obj
 0001:00031b60       ?V4StoreU@aos@shdfnd@physx@@YAXT__m128@@PEAM@Z 0000000180032b60 f i ConvexHullUtils.obj
 0001:00031b90       ?V4Sub@aos@shdfnd@physx@@YA?AT__m128@@T4@0@Z 0000000180032b90 f i ConvexHullUtils.obj
 0001:00031bd0       ?Vec4V_From_Vec3V@aos@shdfnd@physx@@YA?AT__m128@@T4@@Z 0000000180032bd0 f i ConvexHullUtils.obj
 0001:00031bf0       ?allocate@?$Array@VHalfEdge@ConvexHull@physx@@VNamedAllocator@shdfnd@3@@shdfnd@physx@@IEAAPEAVHalfEdge@ConvexHull@3@I@Z 0000000180032bf0 f i ConvexHullUtils.obj
 0001:00031ca0       ?allocate@?$Array@VPxPlane@physx@@VNamedAllocator@shdfnd@2@@shdfnd@physx@@IEAAPEAVPxPlane@3@I@Z 0000000180032ca0 f i ConvexHullUtils.obj
 0001:00031d50       ?allocate@?$ReflectionAllocator@VConvexHull@physx@@@shdfnd@physx@@QEAAPEAX_KPEBDH@Z 0000000180032d50 f i ConvexHullUtils.obj
 0001:00031df0       ?begin@?$Array@VHalfEdge@ConvexHull@physx@@VNamedAllocator@shdfnd@3@@shdfnd@physx@@QEAAPEAVHalfEdge@ConvexHull@3@XZ 0000000180032df0 f i ConvexHullUtils.obj
 0001:00031e10       ?begin@?$Array@VHalfEdge@ConvexHull@physx@@VNamedAllocator@shdfnd@3@@shdfnd@physx@@QEBAPEBVHalfEdge@ConvexHull@3@XZ 0000000180032e10 f i ConvexHullUtils.obj
 0001:00031e30       ?begin@?$Array@VPxPlane@physx@@VNamedAllocator@shdfnd@2@@shdfnd@physx@@QEAAPEAVPxPlane@3@XZ 0000000180032e30 f i ConvexHullUtils.obj
 0001:00031e50       ?begin@?$Array@VPxPlane@physx@@VNamedAllocator@shdfnd@2@@shdfnd@physx@@QEBAPEBVPxPlane@3@XZ 0000000180032e50 f i ConvexHullUtils.obj
 0001:00031e70       ?begin@?$Array@VPxVec3@physx@@VNamedAllocator@shdfnd@2@@shdfnd@physx@@QEBAPEBVPxVec3@3@XZ 0000000180032e70 f i ConvexHullUtils.obj
 0001:00031e90       ?capacity@?$Array@VHalfEdge@ConvexHull@physx@@VNamedAllocator@shdfnd@3@@shdfnd@physx@@QEBAIXZ 0000000180032e90 f i ConvexHullUtils.obj
 0001:00031eb0       ?capacity@?$Array@VPxPlane@physx@@VNamedAllocator@shdfnd@2@@shdfnd@physx@@QEBAIXZ 0000000180032eb0 f i ConvexHullUtils.obj
 0001:00031ed0       ?capacityIncrement@?$Array@VHalfEdge@ConvexHull@physx@@VNamedAllocator@shdfnd@3@@shdfnd@physx@@IEBAIXZ 0000000180032ed0 f i ConvexHullUtils.obj
 0001:00031f20       ?capacityIncrement@?$Array@VPxPlane@physx@@VNamedAllocator@shdfnd@2@@shdfnd@physx@@IEBAIXZ 0000000180032f20 f i ConvexHullUtils.obj
 0001:00031f70       ?copy@?$Array@VHalfEdge@ConvexHull@physx@@VNamedAllocator@shdfnd@3@@shdfnd@physx@@KAXPEAVHalfEdge@ConvexHull@3@0PEBV453@@Z 0000000180032f70 f i ConvexHullUtils.obj
 0001:00032050       ?copy@?$Array@VPxPlane@physx@@VNamedAllocator@shdfnd@2@@shdfnd@physx@@KAXPEAVPxPlane@3@0PEBV43@@Z 0000000180033050 f i ConvexHullUtils.obj
 0001:00032130       ?copyHull@ConvexHull@physx@@QEAAXAEBV12@@Z 0000000180033130 f i ConvexHullUtils.obj
 0001:000323b0       ?cos@intrinsics@physx@@YAMM@Z 00000001800333b0 f i ConvexHullUtils.obj
 0001:000323e0       ?create@?$Array@VHalfEdge@ConvexHull@physx@@VNamedAllocator@shdfnd@3@@shdfnd@physx@@KAXPEAVHalfEdge@ConvexHull@3@0AEBV453@@Z 00000001800333e0 f i ConvexHullUtils.obj
 0001:000324b0       ?create@?$Array@VPxPlane@physx@@VNamedAllocator@shdfnd@2@@shdfnd@physx@@KAXPEAVPxPlane@3@0AEBV43@@Z 00000001800334b0 f i ConvexHullUtils.obj
 0001:00032580       ?create@?$Array@VPxVec3@physx@@VNamedAllocator@shdfnd@2@@shdfnd@physx@@KAXPEAVPxVec3@3@0AEBV43@@Z 0000000180033580 f i ConvexHullUtils.obj
 0001:00032650       ?deallocate@?$Array@VHalfEdge@ConvexHull@physx@@VNamedAllocator@shdfnd@3@@shdfnd@physx@@IEAAXPEAX@Z 0000000180033650 f i ConvexHullUtils.obj
 0001:00032680       ?deallocate@?$Array@VPxPlane@physx@@VNamedAllocator@shdfnd@2@@shdfnd@physx@@IEAAXPEAX@Z 0000000180033680 f i ConvexHullUtils.obj
 0001:000326b0       ?degToRad@shdfnd@physx@@YAMM@Z 00000001800336b0 f i ConvexHullUtils.obj
 0001:000326d0       ?destroy@?$Array@VHalfEdge@ConvexHull@physx@@VNamedAllocator@shdfnd@3@@shdfnd@physx@@KAXPEAVHalfEdge@ConvexHull@3@0@Z 00000001800336d0 f i ConvexHullUtils.obj
 0001:00032720       ?destroy@?$Array@VPxPlane@physx@@VNamedAllocator@shdfnd@2@@shdfnd@physx@@KAXPEAVPxPlane@3@0@Z 0000000180033720 f i ConvexHullUtils.obj
 0001:00032770       ?getDeterminant@PxMat33@physx@@QEBAMXZ 0000000180033770 f i ConvexHullUtils.obj
 0001:000327c0       ?getEdges@ConvexHull@physx@@QEAAAEAV?$Array@VHalfEdge@ConvexHull@physx@@VNamedAllocator@shdfnd@3@@shdfnd@2@XZ 00000001800337c0 f i ConvexHullUtils.obj
 0001:000327e0       ?getEdges@ConvexHull@physx@@QEBAAEBV?$Array@VHalfEdge@ConvexHull@physx@@VNamedAllocator@shdfnd@3@@shdfnd@2@XZ 00000001800337e0 f i ConvexHullUtils.obj
 0001:00032800       ?getFacets@ConvexHull@physx@@QEAAAEAV?$Array@VPxPlane@physx@@VNamedAllocator@shdfnd@2@@shdfnd@2@XZ 0000000180033800 f i ConvexHullUtils.obj
 0001:00032820       ?getFacets@ConvexHull@physx@@QEBAAEBV?$Array@VPxPlane@physx@@VNamedAllocator@shdfnd@2@@shdfnd@2@XZ 0000000180033820 f i ConvexHullUtils.obj
 0001:00032840       ?getInputPlanes@ConvexHull@physx@@QEBAAEBV?$Array@VPxPlane@physx@@VNamedAllocator@shdfnd@2@@shdfnd@2@XZ 0000000180033840 f i ConvexHullUtils.obj
 0001:00032860       ?getInverse@PxMat33@physx@@QEBA?BV12@XZ 0000000180033860 f i ConvexHullUtils.obj
 0001:00032be0       ?getName@?$ReflectionAllocator@VConvexHull@physx@@@shdfnd@physx@@CAPEBDXZ 0000000180033be0 f i ConvexHullUtils.obj
 0001:00032c30       ?getOriginInertia@PxIntegrals@physx@@QEAAXAEAVPxMat33@2@@Z 0000000180033c30 f i ConvexHullUtils.obj
 0001:00032ce0       ?getTranspose@PxMat33@physx@@QEBA?BV12@XZ 0000000180033ce0 f i ConvexHullUtils.obj
 0001:00032dc0       ?getVertices@ConvexHull@physx@@QEAAAEAV?$Array@VPxVec3@physx@@VNamedAllocator@shdfnd@2@@shdfnd@2@XZ 0000000180033dc0 f i ConvexHullUtils.obj
 0001:00032dd0       ?getVertices@ConvexHull@physx@@QEBAAEBV?$Array@VPxVec3@physx@@VNamedAllocator@shdfnd@2@@shdfnd@2@XZ 0000000180033dd0 f i ConvexHullUtils.obj
 0001:00032de0       ?grow@?$Array@VHalfEdge@ConvexHull@physx@@VNamedAllocator@shdfnd@3@@shdfnd@physx@@IEAAXI@Z 0000000180033de0 f i ConvexHullUtils.obj
 0001:00032e80       ?grow@?$Array@VPxPlane@physx@@VNamedAllocator@shdfnd@2@@shdfnd@physx@@IEAAXI@Z 0000000180033e80 f i ConvexHullUtils.obj
 0001:00032f20       ?growAndPushBack@?$Array@VHalfEdge@ConvexHull@physx@@VNamedAllocator@shdfnd@3@@shdfnd@physx@@IEAAAEAVHalfEdge@ConvexHull@3@AEBV453@@Z 0000000180033f20 f i ConvexHullUtils.obj
 0001:00033100       ?growAndPushBack@?$Array@VPxPlane@physx@@VNamedAllocator@shdfnd@2@@shdfnd@physx@@IEAAAEAVPxPlane@3@AEBV43@@Z 0000000180034100 f i ConvexHullUtils.obj
 0001:000332f0       ?isArrayOfPOD@?$Array@VHalfEdge@ConvexHull@physx@@VNamedAllocator@shdfnd@3@@shdfnd@physx@@SA_NXZ 00000001800342f0 f i ConvexHullUtils.obj
 0001:00033300       ?isArrayOfPOD@?$Array@VPxPlane@physx@@VNamedAllocator@shdfnd@2@@shdfnd@physx@@SA_NXZ 0000000180034300 f i ConvexHullUtils.obj
 0001:00033310       ?isInUserMemory@?$Array@VHalfEdge@ConvexHull@physx@@VNamedAllocator@shdfnd@3@@shdfnd@physx@@QEBAIXZ 0000000180034310 f i ConvexHullUtils.obj
 0001:00033330       ?isInUserMemory@?$Array@VPxPlane@physx@@VNamedAllocator@shdfnd@2@@shdfnd@physx@@QEBAIXZ 0000000180034330 f i ConvexHullUtils.obj
 0001:00033350       ?isZeroInit@?$Array@VHalfEdge@ConvexHull@physx@@VNamedAllocator@shdfnd@3@@shdfnd@physx@@KA_NAEBVHalfEdge@ConvexHull@3@@Z 0000000180034350 f i ConvexHullUtils.obj
 0001:000333d0       ?isZeroInit@?$Array@VPxPlane@physx@@VNamedAllocator@shdfnd@2@@shdfnd@physx@@KA_NAEBVPxPlane@3@@Z 00000001800343d0 f i ConvexHullUtils.obj
 0001:00033450       ?isZeroInit@?$Array@VPxVec3@physx@@VNamedAllocator@shdfnd@2@@shdfnd@physx@@KA_NAEBVPxVec3@3@@Z 0000000180034450 f i ConvexHullUtils.obj
 0001:000334d0       ?pushBack@?$Array@VHalfEdge@ConvexHull@physx@@VNamedAllocator@shdfnd@3@@shdfnd@physx@@QEAAAEAVHalfEdge@ConvexHull@3@AEBV453@@Z 00000001800344d0 f i ConvexHullUtils.obj
 0001:000335a0       ?pushBack@?$Array@VPxPlane@physx@@VNamedAllocator@shdfnd@2@@shdfnd@physx@@QEAAAEAVPxPlane@3@AEBV43@@Z 00000001800345a0 f i ConvexHullUtils.obj
 0001:00033670       ?recreate@?$Array@VHalfEdge@ConvexHull@physx@@VNamedAllocator@shdfnd@3@@shdfnd@physx@@IEAAXI@Z 0000000180034670 f i ConvexHullUtils.obj
 0001:000337d0       ?recreate@?$Array@VPxPlane@physx@@VNamedAllocator@shdfnd@2@@shdfnd@physx@@IEAAXI@Z 00000001800347d0 f i ConvexHullUtils.obj
 0001:00033930       ?reserve@?$Array@VHalfEdge@ConvexHull@physx@@VNamedAllocator@shdfnd@3@@shdfnd@physx@@QEAAXI@Z 0000000180034930 f i ConvexHullUtils.obj
 0001:00033970       ?reserve@?$Array@VPxPlane@physx@@VNamedAllocator@shdfnd@2@@shdfnd@physx@@QEAAXI@Z 0000000180034970 f i ConvexHullUtils.obj
 0001:000339b0       ?resize@?$Array@VHalfEdge@ConvexHull@physx@@VNamedAllocator@shdfnd@3@@shdfnd@physx@@QEAAXIAEBVHalfEdge@ConvexHull@3@@Z 00000001800349b0 f i ConvexHullUtils.obj
 0001:00033a70       ?resize@?$Array@VPxPlane@physx@@VNamedAllocator@shdfnd@2@@shdfnd@physx@@QEAAXIAEBVPxPlane@3@@Z 0000000180034a70 f i ConvexHullUtils.obj
 0001:00033b30       ?resize@?$Array@VPxVec3@physx@@VNamedAllocator@shdfnd@2@@shdfnd@physx@@QEAAXIAEBVPxVec3@3@@Z 0000000180034b30 f i ConvexHullUtils.obj
 0001:00033bf0       ?sin@intrinsics@physx@@YAMM@Z 0000000180034bf0 f i ConvexHullUtils.obj
 0001:00033c20       ?size@?$Array@VHalfEdge@ConvexHull@physx@@VNamedAllocator@shdfnd@3@@shdfnd@physx@@QEBAIXZ 0000000180034c20 f i ConvexHullUtils.obj
 0001:00033c40       ?size@?$Array@VPxPlane@physx@@VNamedAllocator@shdfnd@2@@shdfnd@physx@@QEBAIXZ 0000000180034c40 f i ConvexHullUtils.obj
 0001:00033c60       ?threePlaneIntersection@physx@@YA?AVPxVec3@1@AEBVPxPlane@1@00@Z 0000000180034c60 f i ConvexHullUtils.obj
 0001:00033d60       ?to8@shdfnd@physx@@YAEG@Z  0000000180034d60 f i ConvexHullUtils.obj
 0001:00033de0       ?transform@PxMat33@physx@@QEBA?BVPxVec3@2@AEBV32@@Z 0000000180034de0 f i ConvexHullUtils.obj
 0001:00033ec0       ??0ConvexMeshBuilder@physx@@QEAA@_N@Z 0000000180034ec0 f   ConvexMeshBuilder.obj
 0001:00033f40       ??1ConvexMeshBuilder@physx@@QEAA@XZ 0000000180034f40 f   ConvexMeshBuilder.obj
 0001:00033fd0       ?build@ConvexMeshBuilder@physx@@QEAA_NAEBVPxConvexMeshDesc@2@I_NPEAVConvexHullLib@2@@Z 0000000180034fd0 f   ConvexMeshBuilder.obj
 0001:00034100       ?save@ConvexMeshBuilder@physx@@QEBA_NAEAVPxOutputStream@2@_N@Z 0000000180035100 f   ConvexMeshBuilder.obj
 0001:00034450       ?copy@ConvexMeshBuilder@physx@@QEAA_NAEAUConvexHullData@Gu@2@AEAI@Z 0000000180035450 f   ConvexMeshBuilder.obj
 0001:00034590       ?loadConvexHull@ConvexMeshBuilder@physx@@QEAA_NAEBVPxConvexMeshDesc@2@PEAVConvexHullLib@2@@Z 0000000180035590 f   ConvexMeshBuilder.obj
 0001:00034a10       ?computeHullPolygons@ConvexMeshBuilder@physx@@QEAA_NAEBIPEBVPxVec3@2@0PEBIAEAVPxAllocatorCallback@2@AEAIAEAPEAV32@4AEAPEAI4AEAPEAUPxHullPolygon@2@@Z 0000000180035a10 f   ConvexMeshBuilder.obj
 0001:00034e50       ?computeGaussMaps@ConvexMeshBuilder@physx@@QEAA_NXZ 0000000180035e50 f   ConvexMeshBuilder.obj
 0001:00034fa0       ?computeMassInfo@ConvexMeshBuilder@physx@@QEAAX_N@Z 0000000180035fa0 f   ConvexMeshBuilder.obj
 0001:000352f0       ?computeInternalObjects@ConvexMeshBuilder@physx@@QEAAXXZ 00000001800362f0 f   ConvexMeshBuilder.obj
 0001:00036340       ??0?$PxBitAndDataT@G$0IAAA@@physx@@QEAA@XZ 0000000180037340 f i ConvexMeshBuilder.obj
 0001:00036360       ??0?$ReflectionAllocator@VBigConvexData@physx@@@shdfnd@physx@@QEAA@PEBD@Z 0000000180037360 f i ConvexMeshBuilder.obj
 0001:00036380       ??0CenterExtents@Gu@physx@@QEAA@AEBVPxBounds3@2@@Z 0000000180037380 f i ConvexMeshBuilder.obj
 0001:00036410       ??0CenterExtents@Gu@physx@@QEAA@XZ 0000000180037410 f i ConvexMeshBuilder.obj
 0001:00036450       ??0ConvexHullData@Gu@physx@@QEAA@XZ 0000000180037450 f i ConvexMeshBuilder.obj
 0001:000364b0       ??1CenterExtents@Gu@physx@@QEAA@XZ 00000001800374b0 f i ConvexMeshBuilder.obj
 0001:000364c0       ??1ConvexHullData@Gu@physx@@QEAA@XZ 00000001800374c0 f i ConvexMeshBuilder.obj
 0001:000364f0       ??2UserAllocated@shdfnd@physx@@SAPEAX_KPEAX@Z 00000001800374f0 f i ConvexMeshBuilder.obj
 0001:00036510       ??4CenterExtents@Gu@physx@@QEAAAEAV012@AEBV012@@Z 0000000180037510 f i ConvexMeshBuilder.obj
 0001:00036570       ??4PxMat33@physx@@QEAAAEAV01@AEBV01@@Z 0000000180037570 f i ConvexMeshBuilder.obj
 0001:000365f0       ??GPxMat33@physx@@QEBA?BV01@XZ 00000001800375f0 f i ConvexMeshBuilder.obj
 0001:00036690       ??_GBigConvexData@physx@@QEAAPEAXI@Z 0000000180037690 f i ConvexMeshBuilder.obj
 0001:00036700       ?allocate@?$ReflectionAllocator@VBigConvexData@physx@@@shdfnd@physx@@QEAAPEAX_KPEBDH@Z 0000000180037700 f i ConvexMeshBuilder.obj
 0001:000367a0       ?getExtents@PxBounds3@physx@@QEBA?AVPxVec3@2@XZ 00000001800377a0 f i ConvexMeshBuilder.obj
 0001:00036860       ?getMax@CenterExtents@Gu@physx@@QEBA?AVPxVec3@3@XZ 0000000180037860 f i ConvexMeshBuilder.obj
 0001:000368a0       ?getMin@CenterExtents@Gu@physx@@QEBA?AVPxVec3@3@XZ 00000001800378a0 f i ConvexMeshBuilder.obj
 0001:000368e0       ?getName@?$ReflectionAllocator@VBigConvexData@physx@@@shdfnd@physx@@CAPEBDXZ 00000001800378e0 f i ConvexMeshBuilder.obj
 0001:00036930       ?getNextIndex3@shdfnd@physx@@YAII@Z 0000000180037930 f i ConvexMeshBuilder.obj
 0001:00036950       ?isValid@PxConvexMeshDesc@physx@@QEBA_NXZ 0000000180037950 f i ConvexMeshBuilder.obj
 0001:00036be0       ?largestAxis@shdfnd@physx@@YAIAEBVPxVec3@2@@Z 0000000180037be0 f i ConvexMeshBuilder.obj
 0001:00036c70       ?markSerializedMem@Cm@physx@@YAXPEAXI@Z 0000000180037c70 f i ConvexMeshBuilder.obj
 0001:00036cc0       ??0ConvexPolygonsBuilder@physx@@QEAA@PEAUConvexHullData@Gu@1@_N@Z 0000000180037cc0 f   ConvexPolygonsBuilder.obj
 0001:00036d20       ??1ConvexPolygonsBuilder@physx@@QEAA@XZ 0000000180037d20 f   ConvexPolygonsBuilder.obj
 0001:00036d70       ?computeHullPolygons@ConvexPolygonsBuilder@physx@@QEAA_NAEBIPEBVPxVec3@2@0PEBI@Z 0000000180037d70 f   ConvexPolygonsBuilder.obj
 0001:000372e0       ?createPolygonData@ConvexPolygonsBuilder@physx@@AEAA_NXZ 00000001800382e0 f   ConvexPolygonsBuilder.obj
 0001:00038230       ?createTrianglesFromPolygons@ConvexPolygonsBuilder@physx@@AEAA_NXZ 0000000180039230 f   ConvexPolygonsBuilder.obj
 0001:0003b780       ??$?4VNamedAllocator@shdfnd@physx@@@?$Array@IVNamedAllocator@shdfnd@physx@@@shdfnd@physx@@QEAAAEAV012@AEBV012@@Z 000000018003c780 f i ConvexPolygonsBuilder.obj
 0001:0003b830       ??$?_UUHullTriangleData@physx@@@@YAPEAX_KV?$ReflectionAllocator@UHullTriangleData@physx@@@shdfnd@physx@@PEBDH@Z 000000018003c830 f i ConvexPolygonsBuilder.obj
 0001:0003b880       ??$PlaneEquation@U?$TriangleT@I@Gu@physx@@@@YA?AVPxPlane@physx@@AEBU?$TriangleT@I@Gu@1@PEBVPxVec3@1@@Z 000000018003c880 f i ConvexPolygonsBuilder.obj
 0001:0003b950       ??$copy@VNamedAllocator@shdfnd@physx@@@?$Array@VPair@@VNamedAllocator@shdfnd@physx@@@shdfnd@physx@@IEAAXAEBV012@@Z 000000018003c950 f i ConvexPolygonsBuilder.obj
 0001:0003ba40       ??$swap@E@shdfnd@physx@@YAXAEAE0@Z 000000018003ca40 f i ConvexPolygonsBuilder.obj
 0001:0003ba90       ??0?$Array@VPair@@VNamedAllocator@shdfnd@physx@@@shdfnd@physx@@QEAA@AEBV012@AEBVNamedAllocator@12@@Z 000000018003ca90 f i ConvexPolygonsBuilder.obj
 0001:0003bae0       ??0?$Array@VPair@@VNamedAllocator@shdfnd@physx@@@shdfnd@physx@@QEAA@AEBVNamedAllocator@12@@Z 000000018003cae0 f i ConvexPolygonsBuilder.obj
 0001:0003bb40       ??0?$ReflectionAllocator@UHullTriangleData@physx@@@shdfnd@physx@@QEAA@PEBD@Z 000000018003cb40 f i ConvexPolygonsBuilder.obj
 0001:0003bb60       ??0ADJACENCIESCREATE@physx@@QEAA@XZ 000000018003cb60 f i ConvexPolygonsBuilder.obj
 0001:0003bbd0       ??0Pair@@QEAA@II@Z         000000018003cbd0 f i ConvexPolygonsBuilder.obj
 0001:0003bc10       ??1?$Array@VPair@@VNamedAllocator@shdfnd@physx@@@shdfnd@physx@@QEAA@XZ 000000018003cc10 f i ConvexPolygonsBuilder.obj
 0001:0003bca0       ??1Pair@@QEAA@XZ           000000018003cca0 f i ConvexPolygonsBuilder.obj
 0001:0003bcb0       ??4?$Array@IVNamedAllocator@shdfnd@physx@@@shdfnd@physx@@QEAAAEAV012@AEBV012@@Z 000000018003ccb0 f i ConvexPolygonsBuilder.obj
 0001:0003bce0       ??A?$Array@VPair@@VNamedAllocator@shdfnd@physx@@@shdfnd@physx@@QEAAAEAVPair@@I@Z 000000018003cce0 f i ConvexPolygonsBuilder.obj
 0001:0003bd80       ??_GPair@@QEAAPEAXI@Z      000000018003cd80 f i ConvexPolygonsBuilder.obj
 0001:0003c5b0       ?GetAdjTri@AdjTriangle@physx@@QEBAIW4SharedEdgeIndex@2@@Z 000000018003d5b0 f i ConvexPolygonsBuilder.obj
 0001:0003c9c0       ?HasActiveEdge01@AdjTriangle@physx@@QEBAHXZ 000000018003d9c0 f i ConvexPolygonsBuilder.obj
 0001:0003c9f0       ?HasActiveEdge12@AdjTriangle@physx@@QEBAHXZ 000000018003d9f0 f i ConvexPolygonsBuilder.obj
 0001:0003ca20       ?HasActiveEdge20@AdjTriangle@physx@@QEBAHXZ 000000018003da20 f i ConvexPolygonsBuilder.obj
 0001:0003ca50       ?HasActiveEdge@AdjTriangle@physx@@QEBAHI@Z 000000018003da50 f i ConvexPolygonsBuilder.obj
 0001:0003ca80       ?allocate@?$Array@VPair@@VNamedAllocator@shdfnd@physx@@@shdfnd@physx@@IEAAPEAVPair@@I@Z 000000018003da80 f i ConvexPolygonsBuilder.obj
 0001:0003cb30       ?allocate@?$ReflectionAllocator@UHullTriangleData@physx@@@shdfnd@physx@@QEAAPEAX_KPEBDH@Z 000000018003db30 f i ConvexPolygonsBuilder.obj
 0001:0003cbd0       ?begin@?$Array@VPair@@VNamedAllocator@shdfnd@physx@@@shdfnd@physx@@QEAAPEAVPair@@XZ 000000018003dbd0 f i ConvexPolygonsBuilder.obj
 0001:0003cbf0       ?begin@?$Array@VPair@@VNamedAllocator@shdfnd@physx@@@shdfnd@physx@@QEBAPEBVPair@@XZ 000000018003dbf0 f i ConvexPolygonsBuilder.obj
 0001:0003cc10       ?capacity@?$Array@VPair@@VNamedAllocator@shdfnd@physx@@@shdfnd@physx@@QEBAIXZ 000000018003dc10 f i ConvexPolygonsBuilder.obj
 0001:0003cc30       ?capacityIncrement@?$Array@VPair@@VNamedAllocator@shdfnd@physx@@@shdfnd@physx@@IEBAIXZ 000000018003dc30 f i ConvexPolygonsBuilder.obj
 0001:0003cc80       ?clear@?$Array@IVNamedAllocator@shdfnd@physx@@@shdfnd@physx@@QEAAXXZ 000000018003dc80 f i ConvexPolygonsBuilder.obj
 0001:0003ccd0       ?copy@?$Array@VPair@@VNamedAllocator@shdfnd@physx@@@shdfnd@physx@@KAXPEAVPair@@0PEBV4@@Z 000000018003dcd0 f i ConvexPolygonsBuilder.obj
 0001:0003cdb0       ?deallocate@?$Array@VPair@@VNamedAllocator@shdfnd@physx@@@shdfnd@physx@@IEAAXPEAX@Z 000000018003ddb0 f i ConvexPolygonsBuilder.obj
 0001:0003cde0       ?destroy@?$Array@VPair@@VNamedAllocator@shdfnd@physx@@@shdfnd@physx@@KAXPEAVPair@@0@Z 000000018003dde0 f i ConvexPolygonsBuilder.obj
 0001:0003ce40       ?empty@?$Array@VPair@@VNamedAllocator@shdfnd@physx@@@shdfnd@physx@@QEBA_NXZ 000000018003de40 f i ConvexPolygonsBuilder.obj
 0001:0003ce80       ?end@?$Array@IVNamedAllocator@shdfnd@physx@@@shdfnd@physx@@QEAAPEAIXZ 000000018003de80 f i ConvexPolygonsBuilder.obj
 0001:0003cea0       ?find@?$Array@IVNamedAllocator@shdfnd@physx@@@shdfnd@physx@@QEAAPEAIAEBI@Z 000000018003dea0 f i ConvexPolygonsBuilder.obj
 0001:0003cf10       ?flip@?$TriangleT@I@Gu@physx@@QEAAXXZ 000000018003df10 f i ConvexPolygonsBuilder.obj
 0001:0003cf60       ?forceSize_Unsafe@?$Array@IVNamedAllocator@shdfnd@physx@@@shdfnd@physx@@QEAAXI@Z 000000018003df60 f i ConvexPolygonsBuilder.obj
 0001:0003d000       ?getFaces@ConvexPolygonsBuilder@physx@@QEBAPEBUHullTriangleData@2@XZ 000000018003e000 f i ConvexPolygonsBuilder.obj
 0001:0003d020       ?getName@?$ReflectionAllocator@UHullTriangleData@physx@@@shdfnd@physx@@CAPEBDXZ 000000018003e020 f i ConvexPolygonsBuilder.obj
 0001:0003d070       ?getNbFaces@ConvexPolygonsBuilder@physx@@QEBAIXZ 000000018003e070 f i ConvexPolygonsBuilder.obj
 0001:0003d090       ?growAndPushBack@?$Array@VPair@@VNamedAllocator@shdfnd@physx@@@shdfnd@physx@@IEAAAEAVPair@@AEBV4@@Z 000000018003e090 f i ConvexPolygonsBuilder.obj
 0001:0003d2a0       ?isArrayOfPOD@?$Array@VPair@@VNamedAllocator@shdfnd@physx@@@shdfnd@physx@@SA_NXZ 000000018003e2a0 f i ConvexPolygonsBuilder.obj
 0001:0003d2b0       ?isInUserMemory@?$Array@VPair@@VNamedAllocator@shdfnd@physx@@@shdfnd@physx@@QEBAIXZ 000000018003e2b0 f i ConvexPolygonsBuilder.obj
 0001:0003d2d0       ?memMove@intrinsics@physx@@YAPEAXPEAXPEBXI@Z 000000018003e2d0 f i ConvexPolygonsBuilder.obj
 0001:0003d310       ?pushBack@?$Array@VPair@@VNamedAllocator@shdfnd@physx@@@shdfnd@physx@@QEAAAEAVPair@@AEBV4@@Z 000000018003e310 f i ConvexPolygonsBuilder.obj
 0001:0003d400       ?remove@?$Array@IVNamedAllocator@shdfnd@physx@@@shdfnd@physx@@QEAAXI@Z 000000018003e400 f i ConvexPolygonsBuilder.obj
 0001:0003d5b0       ?remove@?$Array@VPair@@VNamedAllocator@shdfnd@physx@@@shdfnd@physx@@QEAAXI@Z 000000018003e5b0 f i ConvexPolygonsBuilder.obj
 0001:0003d7a0       ?size@?$Array@VPair@@VNamedAllocator@shdfnd@physx@@@shdfnd@physx@@QEBAIXZ 000000018003e7a0 f i ConvexPolygonsBuilder.obj
 0001:0003d7c0       ??0InflationConvexHullLib@physx@@QEAA@AEBVPxConvexMeshDesc@1@AEBUPxCookingParams@1@@Z 000000018003e7c0 f   InflationConvexHullLib.obj
 0001:0003d820       ??1InflationConvexHullLib@physx@@UEAA@XZ 000000018003e820 f   InflationConvexHullLib.obj
 0001:0003d8d0       ?createConvexHull@InflationConvexHullLib@physx@@UEAA?AW4Enum@PxConvexMeshCookingResult@2@XZ 000000018003e8d0 f   InflationConvexHullLib.obj
 0001:0003dbc0       ?fillConvexMeshDesc@InflationConvexHullLib@physx@@UEAAXAEAVPxConvexMeshDesc@2@@Z 000000018003ebc0 f   InflationConvexHullLib.obj
 0001:0003dd10       ?computeHull@InflationConvexHullLib@physx@@IEAA?AW4ErrorCode@ConvexHullLibResult@2@IPEBVPxVec3@2@@Z 000000018003ed10 f   InflationConvexHullLib.obj
 0001:0003e340       ?calchull@InflationConvexHullLib@physx@@IEAA?AW4ErrorCode@ConvexHullLibResult@2@PEBVPxVec3@2@IAEAPEAVConvexHull@2@@Z 000000018003f340 f   InflationConvexHullLib.obj
 0001:0003e700       ?calchullgen@InflationConvexHullLib@physx@@IEAA?AW4ErrorCode@ConvexHullLibResult@2@PEBVPxVec3@2@IAEAVHullTriangles@local@@@Z 000000018003f700 f   InflationConvexHullLib.obj
 0001:0003f920       ?calchullplanes@InflationConvexHullLib@physx@@IEAA_NPEBVPxVec3@2@AEAVHullTriangles@local@@AEAV?$Array@VPxPlane@physx@@VNamedAllocator@shdfnd@2@@shdfnd@2@@Z 0000000180040920 f   InflationConvexHullLib.obj
 0001:0003fc70       ?overhull@InflationConvexHullLib@physx@@IEAA_NPEBVPxVec3@2@IAEBV?$Array@VPxPlane@physx@@VNamedAllocator@shdfnd@2@@shdfnd@2@AEAPEAVConvexHull@2@@Z 0000000180040c70 f   InflationConvexHullLib.obj
 0001:00040340       ?expandHull@InflationConvexHullLib@physx@@IEAA?AW4ErrorCode@ConvexHullLibResult@2@PEBVPxVec3@2@IAEBVHullTriangles@local@@AEAPEAVConvexHull@2@@Z 0000000180041340 f   InflationConvexHullLib.obj
 0001:00041500       ?expandHullOBB@InflationConvexHullLib@physx@@IEAA?AW4ErrorCode@ConvexHullLibResult@2@PEBVPxVec3@2@IAEBVHullTriangles@local@@AEAPEAVConvexHull@2@@Z 0000000180042500 f   InflationConvexHullLib.obj
 0001:00041d80       ?maxIndexInDirFiltered@local@@YAHPEBVPxVec3@physx@@IAEBV23@PEA_N@Z 0000000180042d80 f   InflationConvexHullLib.obj
 0001:00041ff0       ?maxIndexInDirSterid@local@@YAHPEBVPxVec3@physx@@IAEBV23@AEAV?$Array@EVNamedAllocator@shdfnd@physx@@@shdfnd@3@@Z 0000000180042ff0 f   InflationConvexHullLib.obj
 0001:00044490       ??$?2V?$ReflectionAllocator@VTri@local@@@shdfnd@physx@@@UserAllocated@shdfnd@physx@@SAPEAX_KV?$ReflectionAllocator@VTri@local@@@12@PEBDH@Z 0000000180045490 f i InflationConvexHullLib.obj
 0001:000444e0       ??$?_UUPxHullPolygon@physx@@@@YAPEAX_KV?$ReflectionAllocator@UPxHullPolygon@physx@@@shdfnd@physx@@PEBDH@Z 00000001800454e0 f i InflationConvexHullLib.obj
 0001:00044530       ??$PX_UNUSED@H@@YAXAEBH@Z  0000000180045530 f i InflationConvexHullLib.obj
 0001:00044540       ??$swap@H@shdfnd@physx@@YAXAEAH0@Z 0000000180045540 f i InflationConvexHullLib.obj
 0001:00044590       ??0?$Array@EVNamedAllocator@shdfnd@physx@@@shdfnd@physx@@QEAA@AEBVNamedAllocator@12@@Z 0000000180045590 f i InflationConvexHullLib.obj
 0001:000445f0       ??0?$Array@HVNamedAllocator@shdfnd@physx@@@shdfnd@physx@@QEAA@AEBVNamedAllocator@12@@Z 00000001800455f0 f i InflationConvexHullLib.obj
 0001:00044650       ??0?$Array@PEAVTri@local@@VNamedAllocator@shdfnd@physx@@@shdfnd@physx@@QEAA@AEBVNamedAllocator@12@@Z 0000000180045650 f i InflationConvexHullLib.obj
 0001:000446b0       ??0?$Array@UExpandPlane@local@@VNamedAllocator@shdfnd@physx@@@shdfnd@physx@@QEAA@AEBVNamedAllocator@12@@Z 00000001800456b0 f i InflationConvexHullLib.obj
 0001:00044710       ??0?$ReflectionAllocator@UPxHullPolygon@physx@@@shdfnd@physx@@QEAA@PEBD@Z 0000000180045710 f i InflationConvexHullLib.obj
 0001:00044730       ??0?$ReflectionAllocator@VTri@local@@@shdfnd@physx@@QEAA@PEBD@Z 0000000180045730 f i InflationConvexHullLib.obj
 0001:00044750       ??0?$ScopedPointer@_NVTempAllocator@shdfnd@physx@@@shdfnd@physx@@QEAA@XZ 0000000180045750 f i InflationConvexHullLib.obj
 0001:00044780       ??0ConvexHullLib@physx@@QEAA@AEBVPxConvexMeshDesc@1@AEBUPxCookingParams@1@@Z 0000000180045780 f i InflationConvexHullLib.obj
 0001:00044810       ??0ConvexHullLibResult@physx@@QEAA@XZ 0000000180045810 f i InflationConvexHullLib.obj
 0001:00044880       ??0ExpandPlane@local@@QEAA@AEBU01@@Z 0000000180045880 f i InflationConvexHullLib.obj
 0001:00044940       ??0ExpandPlane@local@@QEAA@XZ 0000000180045940 f i InflationConvexHullLib.obj
 0001:000449f0       ??0HullSimplex@local@@QEAA@HHHH@Z 00000001800459f0 f i InflationConvexHullLib.obj
 0001:00044a50       ??0HullTriangles@local@@QEAA@XZ 0000000180045a50 f i InflationConvexHullLib.obj
 0001:00044ab0       ??0PxTransform@physx@@QEAA@XZ 0000000180045ab0 f i InflationConvexHullLib.obj
 0001:00044af0       ??0Tri@local@@IEAA@HHH@Z   0000000180045af0 f i InflationConvexHullLib.obj
 0001:00044b90       ??0int3@local@@QEAA@HHH@Z  0000000180045b90 f i InflationConvexHullLib.obj
 0001:00044be0       ??1?$Array@EVNamedAllocator@shdfnd@physx@@@shdfnd@physx@@QEAA@XZ 0000000180045be0 f i InflationConvexHullLib.obj
 0001:00044c60       ??1?$Array@HVNamedAllocator@shdfnd@physx@@@shdfnd@physx@@QEAA@XZ 0000000180045c60 f i InflationConvexHullLib.obj
 0001:00044cf0       ??1?$Array@PEAVTri@local@@VNamedAllocator@shdfnd@physx@@@shdfnd@physx@@QEAA@XZ 0000000180045cf0 f i InflationConvexHullLib.obj
 0001:00044d80       ??1?$Array@UExpandPlane@local@@VNamedAllocator@shdfnd@physx@@@shdfnd@physx@@QEAA@XZ 0000000180045d80 f i InflationConvexHullLib.obj
 0001:00044e10       ??1?$Array@VHalfEdge@ConvexHull@physx@@VNamedAllocator@shdfnd@3@@shdfnd@physx@@QEAA@XZ 0000000180045e10 f i InflationConvexHullLib.obj
 0001:00044ea0       ??1?$Array@VPxPlane@physx@@VNamedAllocator@shdfnd@2@@shdfnd@physx@@QEAA@XZ 0000000180045ea0 f i InflationConvexHullLib.obj
 0001:00044f30       ??1?$ScopedPointer@_NVTempAllocator@shdfnd@physx@@@shdfnd@physx@@QEAA@XZ 0000000180045f30 f i InflationConvexHullLib.obj
 0001:00044f70       ??1ConvexHull@physx@@QEAA@XZ 0000000180045f70 f i InflationConvexHullLib.obj
 0001:00044fc0       ??1HullTriangles@local@@QEAA@XZ 0000000180045fc0 f i InflationConvexHullLib.obj
 0001:000450a0       ??1Tri@local@@IEAA@XZ      00000001800460a0 f i InflationConvexHullLib.obj
 0001:000450b0       ??4?$PxFlags@W4Enum@PxConvexFlag@physx@@G@physx@@QEAAAEAV01@AEBV01@@Z 00000001800460b0 f i InflationConvexHullLib.obj
 0001:000450e0       ??A?$Array@EVNamedAllocator@shdfnd@physx@@@shdfnd@physx@@QEAAAEAEI@Z 00000001800460e0 f i InflationConvexHullLib.obj
 0001:00045180       ??A?$Array@HVNamedAllocator@shdfnd@physx@@@shdfnd@physx@@QEAAAEAHI@Z 0000000180046180 f i InflationConvexHullLib.obj
 0001:00045220       ??A?$Array@PEAVTri@local@@VNamedAllocator@shdfnd@physx@@@shdfnd@physx@@QEAAAEAPEAVTri@local@@I@Z 0000000180046220 f i InflationConvexHullLib.obj
 0001:000452c0       ??A?$Array@PEAVTri@local@@VNamedAllocator@shdfnd@physx@@@shdfnd@physx@@QEBAAEBQEAVTri@local@@I@Z 00000001800462c0 f i InflationConvexHullLib.obj
 0001:00045360       ??A?$Array@UExpandPlane@local@@VNamedAllocator@shdfnd@physx@@@shdfnd@physx@@QEAAAEAUExpandPlane@local@@I@Z 0000000180046360 f i InflationConvexHullLib.obj
 0001:00045400       ??A?$Array@VPxPlane@physx@@VNamedAllocator@shdfnd@2@@shdfnd@physx@@QEAAAEAVPxPlane@2@I@Z 0000000180046400 f i InflationConvexHullLib.obj
 0001:000454a0       ??AHullSimplex@local@@QEAAAEAHH@Z 00000001800464a0 f i InflationConvexHullLib.obj
 0001:000454c0       ??AHullTriangles@local@@QEAAPEAVTri@1@I@Z 00000001800464c0 f i InflationConvexHullLib.obj
 0001:000454f0       ??AHullTriangles@local@@QEBAPEBVTri@1@I@Z 00000001800464f0 f i InflationConvexHullLib.obj
 0001:00045520       ??Aint3@local@@QEAAAEAHH@Z 0000000180046520 f i InflationConvexHullLib.obj
 0001:00045540       ??Aint3@local@@QEBAAEBHH@Z 0000000180046540 f i InflationConvexHullLib.obj
 0001:00045560       ??B?$ScopedPointer@_NVTempAllocator@shdfnd@physx@@@shdfnd@physx@@QEBAPEA_NXZ 0000000180046560 f i InflationConvexHullLib.obj
 0001:00045580       ??KPxVec3@physx@@QEBA?AV01@M@Z 0000000180046580 f i InflationConvexHullLib.obj
 0001:00045620       ??_GConvexHull@physx@@QEAAPEAXI@Z 0000000180046620 f i InflationConvexHullLib.obj
 0001:00045690       ??_EInflationConvexHullLib@physx@@UEAAPEAXI@Z 0000000180046690 f i InflationConvexHullLib.obj
 0001:00045690       ??_GInflationConvexHullLib@physx@@UEAAPEAXI@Z 0000000180046690 f i InflationConvexHullLib.obj
 0001:00045700       ??_GTri@local@@IEAAPEAXI@Z 0000000180046700 f i InflationConvexHullLib.obj
 0001:000458f0       ?allocate@?$Array@EVNamedAllocator@shdfnd@physx@@@shdfnd@physx@@IEAAPEAEI@Z 00000001800468f0 f i InflationConvexHullLib.obj
 0001:00045990       ?allocate@?$Array@HVNamedAllocator@shdfnd@physx@@@shdfnd@physx@@IEAAPEAHI@Z 0000000180046990 f i InflationConvexHullLib.obj
 0001:00045a40       ?allocate@?$Array@PEAVTri@local@@VNamedAllocator@shdfnd@physx@@@shdfnd@physx@@IEAAPEAPEAVTri@local@@I@Z 0000000180046a40 f i InflationConvexHullLib.obj
 0001:00045af0       ?allocate@?$Array@UExpandPlane@local@@VNamedAllocator@shdfnd@physx@@@shdfnd@physx@@IEAAPEAUExpandPlane@local@@I@Z 0000000180046af0 f i InflationConvexHullLib.obj
 0001:00045ba0       ?allocate@?$ReflectionAllocator@UPxHullPolygon@physx@@@shdfnd@physx@@QEAAPEAX_KPEBDH@Z 0000000180046ba0 f i InflationConvexHullLib.obj
 0001:00045c40       ?allocate@?$ReflectionAllocator@VTri@local@@@shdfnd@physx@@QEAAPEAX_KPEBDH@Z 0000000180046c40 f i InflationConvexHullLib.obj
 0001:00045ce0       ?b2bfix@HullTriangles@local@@IEAAXPEAVTri@2@0@Z 0000000180046ce0 f i InflationConvexHullLib.obj
 0001:00045fe0       ?capacity@?$Array@EVNamedAllocator@shdfnd@physx@@@shdfnd@physx@@QEBAIXZ 0000000180046fe0 f i InflationConvexHullLib.obj
 0001:00046000       ?capacity@?$Array@HVNamedAllocator@shdfnd@physx@@@shdfnd@physx@@QEBAIXZ 0000000180047000 f i InflationConvexHullLib.obj
 0001:00046020       ?capacity@?$Array@PEAVTri@local@@VNamedAllocator@shdfnd@physx@@@shdfnd@physx@@QEBAIXZ 0000000180047020 f i InflationConvexHullLib.obj
 0001:00046040       ?capacity@?$Array@UExpandPlane@local@@VNamedAllocator@shdfnd@physx@@@shdfnd@physx@@QEBAIXZ 0000000180047040 f i InflationConvexHullLib.obj
 0001:00046060       ?capacityIncrement@?$Array@EVNamedAllocator@shdfnd@physx@@@shdfnd@physx@@IEBAIXZ 0000000180047060 f i InflationConvexHullLib.obj
 0001:000460b0       ?capacityIncrement@?$Array@HVNamedAllocator@shdfnd@physx@@@shdfnd@physx@@IEBAIXZ 00000001800470b0 f i InflationConvexHullLib.obj
 0001:00046100       ?capacityIncrement@?$Array@PEAVTri@local@@VNamedAllocator@shdfnd@physx@@@shdfnd@physx@@IEBAIXZ 0000000180047100 f i InflationConvexHullLib.obj
 0001:00046150       ?capacityIncrement@?$Array@UExpandPlane@local@@VNamedAllocator@shdfnd@physx@@@shdfnd@physx@@IEBAIXZ 0000000180047150 f i InflationConvexHullLib.obj
 0001:000461a0       ?checkit@HullTriangles@local@@QEBAXPEAVTri@2@@Z 00000001800471a0 f i InflationConvexHullLib.obj
 0001:00046400       ?clear@?$Array@HVNamedAllocator@shdfnd@physx@@@shdfnd@physx@@QEAAXXZ 0000000180047400 f i InflationConvexHullLib.obj
 0001:00046450       ?clear@?$Array@PEAVTri@local@@VNamedAllocator@shdfnd@physx@@@shdfnd@physx@@QEAAXXZ 0000000180047450 f i InflationConvexHullLib.obj
 0001:000464a0       ?copy@?$Array@EVNamedAllocator@shdfnd@physx@@@shdfnd@physx@@KAXPEAE0PEBE@Z 00000001800474a0 f i InflationConvexHullLib.obj
 0001:00046570       ?copy@?$Array@HVNamedAllocator@shdfnd@physx@@@shdfnd@physx@@KAXPEAH0PEBH@Z 0000000180047570 f i InflationConvexHullLib.obj
 0001:00046650       ?copy@?$Array@PEAVTri@local@@VNamedAllocator@shdfnd@physx@@@shdfnd@physx@@KAXPEAPEAVTri@local@@0PEBQEAV45@@Z 0000000180047650 f i InflationConvexHullLib.obj
 0001:00046730       ?copy@?$Array@UExpandPlane@local@@VNamedAllocator@shdfnd@physx@@@shdfnd@physx@@KAXPEAUExpandPlane@local@@0PEBU45@@Z 0000000180047730 f i InflationConvexHullLib.obj
 0001:00046820       ?create@?$Array@HVNamedAllocator@shdfnd@physx@@@shdfnd@physx@@KAXPEAH0AEBH@Z 0000000180047820 f i InflationConvexHullLib.obj
 0001:000468f0       ?createEdgeList@InflationConvexHullLib@physx@@UEAA_NIPEBEPEAPEAEPEAPEAG2@Z 00000001800478f0 f i InflationConvexHullLib.obj
 0001:00046910       ?createTri@HullTriangles@local@@QEAAPEAVTri@2@HHH@Z 0000000180047910 f i InflationConvexHullLib.obj
 0001:00046a00       ?deallocate@?$Array@EVNamedAllocator@shdfnd@physx@@@shdfnd@physx@@IEAAXPEAX@Z 0000000180047a00 f i InflationConvexHullLib.obj
 0001:00046a30       ?deallocate@?$Array@HVNamedAllocator@shdfnd@physx@@@shdfnd@physx@@IEAAXPEAX@Z 0000000180047a30 f i InflationConvexHullLib.obj
 0001:00046a60       ?deallocate@?$Array@PEAVTri@local@@VNamedAllocator@shdfnd@physx@@@shdfnd@physx@@IEAAXPEAX@Z 0000000180047a60 f i InflationConvexHullLib.obj
 0001:00046a90       ?deallocate@?$Array@UExpandPlane@local@@VNamedAllocator@shdfnd@physx@@@shdfnd@physx@@IEAAXPEAX@Z 0000000180047a90 f i InflationConvexHullLib.obj
 0001:00046ac0       ?deleteTri@HullTriangles@local@@QEAAXPEAVTri@2@@Z 0000000180047ac0 f i InflationConvexHullLib.obj
 0001:00046bd0       ?destroy@?$Array@EVNamedAllocator@shdfnd@physx@@@shdfnd@physx@@KAXPEAE0@Z 0000000180047bd0 f i InflationConvexHullLib.obj
 0001:00046c20       ?destroy@?$Array@HVNamedAllocator@shdfnd@physx@@@shdfnd@physx@@KAXPEAH0@Z 0000000180047c20 f i InflationConvexHullLib.obj
 0001:00046c70       ?destroy@?$Array@PEAVTri@local@@VNamedAllocator@shdfnd@physx@@@shdfnd@physx@@KAXPEAPEAVTri@local@@0@Z 0000000180047c70 f i InflationConvexHullLib.obj
 0001:00046cc0       ?destroy@?$Array@UExpandPlane@local@@VNamedAllocator@shdfnd@physx@@@shdfnd@physx@@KAXPEAUExpandPlane@local@@0@Z 0000000180047cc0 f i InflationConvexHullLib.obj
 0001:00046d10       ?extrude@HullTriangles@local@@QEAAXPEAVTri@2@H@Z 0000000180047d10 f i InflationConvexHullLib.obj
 0001:00047380       ?findExtrudable@HullTriangles@local@@QEBAPEAVTri@2@M@Z 0000000180048380 f i InflationConvexHullLib.obj
 0001:00047490       ?getArea2@Tri@local@@QEBAMPEBVPxVec3@physx@@@Z 0000000180048490 f i InflationConvexHullLib.obj
 0001:000475b0       ?getName@?$ReflectionAllocator@UPxHullPolygon@physx@@@shdfnd@physx@@CAPEBDXZ 00000001800485b0 f i InflationConvexHullLib.obj
 0001:00047600       ?getName@?$ReflectionAllocator@VTri@local@@@shdfnd@physx@@CAPEBDXZ 0000000180048600 f i InflationConvexHullLib.obj
 0001:00047650       ?getNormal@Tri@local@@QEBA?AVPxVec3@physx@@PEBV34@@Z 0000000180048650 f i InflationConvexHullLib.obj
 0001:00047800       ?getTriangles@HullTriangles@local@@QEAAAEAV?$Array@PEAVTri@local@@VNamedAllocator@shdfnd@physx@@@shdfnd@physx@@XZ 0000000180048800 f i InflationConvexHullLib.obj
 0001:00047810       ?grow@?$Array@EVNamedAllocator@shdfnd@physx@@@shdfnd@physx@@IEAAXI@Z 0000000180048810 f i InflationConvexHullLib.obj
 0001:000478b0       ?grow@?$Array@HVNamedAllocator@shdfnd@physx@@@shdfnd@physx@@IEAAXI@Z 00000001800488b0 f i InflationConvexHullLib.obj
 0001:00047950       ?grow@?$Array@PEAVTri@local@@VNamedAllocator@shdfnd@physx@@@shdfnd@physx@@IEAAXI@Z 0000000180048950 f i InflationConvexHullLib.obj
 0001:000479f0       ?growAndPushBack@?$Array@EVNamedAllocator@shdfnd@physx@@@shdfnd@physx@@IEAAAEAEAEBE@Z 00000001800489f0 f i InflationConvexHullLib.obj
 0001:00047be0       ?growAndPushBack@?$Array@HVNamedAllocator@shdfnd@physx@@@shdfnd@physx@@IEAAAEAHAEBH@Z 0000000180048be0 f i InflationConvexHullLib.obj
 0001:00047dc0       ?growAndPushBack@?$Array@PEAVTri@local@@VNamedAllocator@shdfnd@physx@@@shdfnd@physx@@IEAAAEAPEAVTri@local@@AEBQEAV45@@Z 0000000180048dc0 f i InflationConvexHullLib.obj
 0001:00047fa0       ?growAndPushBack@?$Array@UExpandPlane@local@@VNamedAllocator@shdfnd@physx@@@shdfnd@physx@@IEAAAEAUExpandPlane@local@@AEBU45@@Z 0000000180048fa0 f i InflationConvexHullLib.obj
 0001:00048190       ?hasVolume@HullSimplex@local@@SA_NPEBVPxVec3@physx@@IIII@Z 0000000180049190 f i InflationConvexHullLib.obj
 0001:00048370       ?isArrayOfPOD@?$Array@EVNamedAllocator@shdfnd@physx@@@shdfnd@physx@@SA_NXZ 0000000180049370 f i InflationConvexHullLib.obj
 0001:00048380       ?isArrayOfPOD@?$Array@HVNamedAllocator@shdfnd@physx@@@shdfnd@physx@@SA_NXZ 0000000180049380 f i InflationConvexHullLib.obj
 0001:00048390       ?isArrayOfPOD@?$Array@PEAVTri@local@@VNamedAllocator@shdfnd@physx@@@shdfnd@physx@@SA_NXZ 0000000180049390 f i InflationConvexHullLib.obj
 0001:000483a0       ?isArrayOfPOD@?$Array@UExpandPlane@local@@VNamedAllocator@shdfnd@physx@@@shdfnd@physx@@SA_NXZ 00000001800493a0 f i InflationConvexHullLib.obj
 0001:000483b0       ?isInUserMemory@?$Array@EVNamedAllocator@shdfnd@physx@@@shdfnd@physx@@QEBAIXZ 00000001800493b0 f i InflationConvexHullLib.obj
 0001:000483d0       ?isInUserMemory@?$Array@HVNamedAllocator@shdfnd@physx@@@shdfnd@physx@@QEBAIXZ 00000001800493d0 f i InflationConvexHullLib.obj
 0001:000483f0       ?isInUserMemory@?$Array@PEAVTri@local@@VNamedAllocator@shdfnd@physx@@@shdfnd@physx@@QEBAIXZ 00000001800493f0 f i InflationConvexHullLib.obj
 0001:00048410       ?isInUserMemory@?$Array@UExpandPlane@local@@VNamedAllocator@shdfnd@physx@@@shdfnd@physx@@QEBAIXZ 0000000180049410 f i InflationConvexHullLib.obj
 0001:00048430       ?isZeroInit@?$Array@HVNamedAllocator@shdfnd@physx@@@shdfnd@physx@@KA_NAEBH@Z 0000000180049430 f i InflationConvexHullLib.obj
 0001:000484b0       ?neib@Tri@local@@QEAAAEAHHH@Z 00000001800494b0 f i InflationConvexHullLib.obj
 0001:00048650       ?pushBack@?$Array@EVNamedAllocator@shdfnd@physx@@@shdfnd@physx@@QEAAAEAEAEBE@Z 0000000180049650 f i InflationConvexHullLib.obj
 0001:00048720       ?pushBack@?$Array@HVNamedAllocator@shdfnd@physx@@@shdfnd@physx@@QEAAAEAHAEBH@Z 0000000180049720 f i InflationConvexHullLib.obj
 0001:000487f0       ?pushBack@?$Array@PEAVTri@local@@VNamedAllocator@shdfnd@physx@@@shdfnd@physx@@QEAAAEAPEAVTri@local@@AEBQEAV45@@Z 00000001800497f0 f i InflationConvexHullLib.obj
 0001:000488c0       ?pushBack@?$Array@UExpandPlane@local@@VNamedAllocator@shdfnd@physx@@@shdfnd@physx@@QEAAAEAUExpandPlane@local@@AEBU45@@Z 00000001800498c0 f i InflationConvexHullLib.obj
 0001:00048990       ?recreate@?$Array@EVNamedAllocator@shdfnd@physx@@@shdfnd@physx@@IEAAXI@Z 0000000180049990 f i InflationConvexHullLib.obj
 0001:00048ae0       ?recreate@?$Array@HVNamedAllocator@shdfnd@physx@@@shdfnd@physx@@IEAAXI@Z 0000000180049ae0 f i InflationConvexHullLib.obj
 0001:00048c40       ?recreate@?$Array@PEAVTri@local@@VNamedAllocator@shdfnd@physx@@@shdfnd@physx@@IEAAXI@Z 0000000180049c40 f i InflationConvexHullLib.obj
 0001:00048da0       ?removeb2b@HullTriangles@local@@IEAAXPEAVTri@2@0@Z 0000000180049da0 f i InflationConvexHullLib.obj
 0001:00048e00       ?reserve@?$Array@EVNamedAllocator@shdfnd@physx@@@shdfnd@physx@@QEAAXI@Z 0000000180049e00 f i InflationConvexHullLib.obj
 0001:00048e40       ?reserve@?$Array@HVNamedAllocator@shdfnd@physx@@@shdfnd@physx@@QEAAXI@Z 0000000180049e40 f i InflationConvexHullLib.obj
 0001:00048e80       ?reserve@?$Array@PEAVTri@local@@VNamedAllocator@shdfnd@physx@@@shdfnd@physx@@QEAAXI@Z 0000000180049e80 f i InflationConvexHullLib.obj
 0001:00048ec0       ?resize@?$Array@HVNamedAllocator@shdfnd@physx@@@shdfnd@physx@@QEAAXIAEBH@Z 0000000180049ec0 f i InflationConvexHullLib.obj
 0001:00048f80       ?size@?$Array@HVNamedAllocator@shdfnd@physx@@@shdfnd@physx@@QEBAIXZ 0000000180049f80 f i InflationConvexHullLib.obj
 0001:00048fa0       ?size@?$Array@PEAVTri@local@@VNamedAllocator@shdfnd@physx@@@shdfnd@physx@@QEBAIXZ 0000000180049fa0 f i InflationConvexHullLib.obj
 0001:00048fc0       ?size@?$Array@UExpandPlane@local@@VNamedAllocator@shdfnd@physx@@@shdfnd@physx@@QEBAIXZ 0000000180049fc0 f i InflationConvexHullLib.obj
 0001:00048fe0       ?size@HullTriangles@local@@QEBAIXZ 0000000180049fe0 f i InflationConvexHullLib.obj
 0001:00049010       ?to8@shdfnd@physx@@YAEH@Z  000000018004a010 f i InflationConvexHullLib.obj
 0001:00049170       ??0QuickHullConvexHullLib@physx@@QEAA@AEBVPxConvexMeshDesc@1@AEBUPxCookingParams@1@@Z 000000018004a170 f   QuickHullConvexHullLib.obj
 0001:00049270       ??1QuickHullConvexHullLib@physx@@UEAA@XZ 000000018004a270 f   QuickHullConvexHullLib.obj
 0001:00049360       ?createConvexHull@QuickHullConvexHullLib@physx@@UEAA?AW4Enum@PxConvexMeshCookingResult@2@XZ 000000018004a360 f   QuickHullConvexHullLib.obj
 0001:00049900       ?fillConvexMeshDesc@QuickHullConvexHullLib@physx@@UEAAXAEAVPxConvexMeshDesc@2@@Z 000000018004a900 f   QuickHullConvexHullLib.obj
 0001:00049990       ?createEdgeList@QuickHullConvexHullLib@physx@@UEAA_NIPEBEPEAPEAEPEAPEAG2@Z 000000018004a990 f   QuickHullConvexHullLib.obj
 0001:00049ef0       ?expandHullOBB@QuickHullConvexHullLib@physx@@IEAA?AW4Enum@PxConvexMeshCookingResult@2@XZ 000000018004aef0 f   QuickHullConvexHullLib.obj
 0001:0004a500       ?expandHull@QuickHullConvexHullLib@physx@@IEAA?AW4Enum@PxConvexMeshCookingResult@2@XZ 000000018004b500 f   QuickHullConvexHullLib.obj
 0001:0004acc0       ?cleanupForSimplex@QuickHullConvexHullLib@physx@@IEAA_NPEAVPxVec3@2@IPEAUQuickHullVertex@local@@1AEAM2@Z 000000018004bcc0 f   QuickHullConvexHullLib.obj
 0001:0004b8f0       ?fillConvexMeshDescFromQuickHull@QuickHullConvexHullLib@physx@@IEAAXAEAVPxConvexMeshDesc@2@@Z 000000018004c8f0 f   QuickHullConvexHullLib.obj
 0001:0004c0d0       ?fillConvexMeshDescFromCroppedHull@QuickHullConvexHullLib@physx@@IEAAXAEAVPxConvexMeshDesc@2@@Z 000000018004d0d0 f   QuickHullConvexHullLib.obj
 0001:0004c660       ?getOppositeFaceDistance@QuickHullHalfEdge@local@@QEBAMXZ 000000018004d660 f   QuickHullConvexHullLib.obj
 0001:0004c760       ?mergeAdjacentFace@QuickHullFace@local@@QEAA_NPEAUQuickHullHalfEdge@2@AEAV?$Array@PEAUQuickHullFace@local@@VNamedAllocator@shdfnd@physx@@@shdfnd@physx@@@Z 000000018004d760 f   QuickHullConvexHullLib.obj
 0001:0004c9e0       ?checkFaceConsistency@QuickHullFace@local@@QEAA_NXZ 000000018004d9e0 f   QuickHullConvexHullLib.obj
 0001:0004cca0       ?connectHalfEdges@QuickHullFace@local@@AEAAPEAU12@PEAUQuickHullHalfEdge@2@0@Z 000000018004dca0 f   QuickHullConvexHullLib.obj
 0001:0004ce20       ??0QuickHull@local@@QEAA@AEBUPxCookingParams@physx@@AEBVPxConvexMeshDesc@3@@Z 000000018004de20 f   QuickHullConvexHullLib.obj
 0001:0004d050       ??1QuickHull@local@@QEAA@XZ 000000018004e050 f   QuickHullConvexHullLib.obj
 0001:0004d100       ?preallocate@QuickHull@local@@QEAAXI@Z 000000018004e100 f   QuickHullConvexHullLib.obj
 0001:0004d2c0       ?parseInputVertices@QuickHull@local@@QEAAXPEBVPxVec3@physx@@I@Z 000000018004e2c0 f   QuickHullConvexHullLib.obj
 0001:0004d400       ?releaseHull@QuickHull@local@@QEAAXXZ 000000018004e400 f   QuickHullConvexHullLib.obj
 0001:0004d460       ?setPrecomputedMinMax@QuickHull@local@@QEAAXPEBUQuickHullVertex@2@0MM@Z 000000018004e460 f   QuickHullConvexHullLib.obj
 0001:0004d540       ?buildHull@QuickHull@local@@QEAA?AW4Enum@QuickHullResult@2@XZ 000000018004e540 f   QuickHullConvexHullLib.obj
 0001:0004d870       ?maxNumVertsPerFace@QuickHull@local@@QEBAIXZ 000000018004e870 f   QuickHullConvexHullLib.obj
 0001:0004d910       ?computeMinMaxVerts@QuickHull@local@@IEAAXXZ 000000018004e910 f   QuickHullConvexHullLib.obj
 0001:0004ddc0       ?findSimplex@QuickHull@local@@IEAA_NXZ 000000018004edc0 f   QuickHullConvexHullLib.obj
 0001:0004e330       ?addSimplex@QuickHull@local@@IEAAXPEAUQuickHullVertex@2@_N@Z 000000018004f330 f   QuickHullConvexHullLib.obj
 0001:0004eb70       ?nextPointToAdd@QuickHull@local@@IEAAPEAUQuickHullVertex@2@AEAPEAUQuickHullFace@2@@Z 000000018004fb70 f   QuickHullConvexHullLib.obj
 0001:0004ecc0       ?addPointToHull@QuickHull@local@@IEAA_NPEBUQuickHullVertex@2@AEAUQuickHullFace@2@AEA_N@Z 000000018004fcc0 f   QuickHullConvexHullLib.obj
 0001:0004f000       ?createTriangle@QuickHull@local@@IEAAPEAUQuickHullFace@2@AEBUQuickHullVertex@2@00@Z 0000000180050000 f   QuickHullConvexHullLib.obj
 0001:0004f140       ?addPointToFace@QuickHull@local@@IEAAXAEAUQuickHullFace@2@PEAUQuickHullVertex@2@M@Z 0000000180050140 f   QuickHullConvexHullLib.obj
 0001:0004f270       ?removeEyePointFromFace@QuickHull@local@@IEAAXAEAUQuickHullFace@2@PEBUQuickHullVertex@2@@Z 0000000180050270 f   QuickHullConvexHullLib.obj
 0001:0004f310       ?calculateHorizon@QuickHull@local@@IEAAXAEBVPxVec3@physx@@PEAUQuickHullHalfEdge@2@AEAUQuickHullFace@2@AEAV?$Array@PEAUQuickHullHalfEdge@local@@VNamedAllocator@shdfnd@physx@@@shdfnd@4@AEAV?$Array@PEAUQuickHullFace@local@@VNamedAllocator@shdfnd@physx@@@84@@Z 0000000180050310 f   QuickHullConvexHullLib.obj
 0001:0004f4b0       ?addNewFacesFromHorizon@QuickHull@local@@IEAAXPEBUQuickHullVertex@2@AEBV?$Array@PEAUQuickHullHalfEdge@local@@VNamedAllocator@shdfnd@physx@@@shdfnd@physx@@AEAV?$Array@PEAUQuickHullFace@local@@VNamedAllocator@shdfnd@physx@@@56@@Z 00000001800504b0 f   QuickHullConvexHullLib.obj
 0001:0004f620       ?doAdjacentMerge@QuickHull@local@@IEAA_NAEAUQuickHullFace@2@_NAEA_N@Z 0000000180050620 f   QuickHullConvexHullLib.obj
 0001:0004f900       ?doPostAdjacentMerge@QuickHull@local@@IEAA_NAEAUQuickHullFace@2@M@Z 0000000180050900 f   QuickHullConvexHullLib.obj
 0001:0004fb20       ?deleteFacePoints@QuickHull@local@@IEAAXAEAUQuickHullFace@2@PEAU32@@Z 0000000180050b20 f   QuickHullConvexHullLib.obj
 0001:0004fc50       ?resolveUnclaimedPoints@QuickHull@local@@IEAAXAEBV?$Array@PEAUQuickHullFace@local@@VNamedAllocator@shdfnd@physx@@@shdfnd@physx@@@Z 0000000180050c50 f   QuickHullConvexHullLib.obj
 0001:0004fdc0       ?postMergeHull@QuickHull@local@@IEAAXXZ 0000000180050dc0 f   QuickHullConvexHullLib.obj
 0001:0004feb0       ?canMergeFaces@QuickHull@local@@IEAA_NAEBUQuickHullHalfEdge@2@@Z 0000000180050eb0 f   QuickHullConvexHullLib.obj
 0001:00050540       ?getExpandPoint@local@@YAXAEBUQuickHullHalfEdge@1@AEAUExpandPoint@1@PEBV?$Array@IVNamedAllocator@shdfnd@physx@@@shdfnd@physx@@@Z 0000000180051540 f   QuickHullConvexHullLib.obj
 0001:00050790       ?addExpandPoint@local@@YAXAEBUExpandPoint@1@AEAV?$Array@UExpandPoint@local@@VNamedAllocator@shdfnd@physx@@@shdfnd@physx@@@Z 0000000180051790 f   QuickHullConvexHullLib.obj
 0001:000526d0       ??$?2V?$ReflectionAllocator@VQuickHull@local@@@shdfnd@physx@@@UserAllocated@shdfnd@physx@@SAPEAX_KV?$ReflectionAllocator@VQuickHull@local@@@12@PEBDH@Z 00000001800536d0 f i QuickHullConvexHullLib.obj
 0001:00052720       ??$PX_UNUSED@PEAUQuickHullFace@local@@@@YAXAEBQEAUQuickHullFace@local@@@Z 0000000180053720 f i QuickHullConvexHullLib.obj
 0001:00052730       ??$PX_UNUSED@PEBUQuickHullVertex@local@@@@YAXAEBQEBUQuickHullVertex@local@@@Z 0000000180053730 f i QuickHullConvexHullLib.obj
 0001:00052740       ??$PX_UNUSED@W4PxZERO@physx@@@@YAXAEBW4PxZERO@physx@@@Z 0000000180053740 f i QuickHullConvexHullLib.obj
 0001:00052750       ??0?$Array@PEAUQuickHullFace@local@@VNamedAllocator@shdfnd@physx@@@shdfnd@physx@@QEAA@AEBVNamedAllocator@12@@Z 0000000180053750 f i QuickHullConvexHullLib.obj
 0001:000527b0       ??0?$Array@PEAUQuickHullHalfEdge@local@@VNamedAllocator@shdfnd@physx@@@shdfnd@physx@@QEAA@AEBVNamedAllocator@12@@Z 00000001800537b0 f i QuickHullConvexHullLib.obj
 0001:00052810       ??0?$Array@PEAUQuickHullVertex@local@@VNamedAllocator@shdfnd@physx@@@shdfnd@physx@@QEAA@AEBVNamedAllocator@12@@Z 0000000180053810 f i QuickHullConvexHullLib.obj
 0001:00052870       ??0?$Array@UExpandPoint@local@@VNamedAllocator@shdfnd@physx@@@shdfnd@physx@@QEAA@AEBVNamedAllocator@12@@Z 0000000180053870 f i QuickHullConvexHullLib.obj
 0001:000528d0       ??0?$MemBlock@UQuickHullFace@local@@$00@local@@QEAA@XZ 00000001800538d0 f i QuickHullConvexHullLib.obj
 0001:00052950       ??0?$MemBlock@UQuickHullHalfEdge@local@@$0A@@local@@QEAA@XZ 0000000180053950 f i QuickHullConvexHullLib.obj
 0001:000529d0       ??0?$ReflectionAllocator@VQuickHull@local@@@shdfnd@physx@@QEAA@PEBD@Z 00000001800539d0 f i QuickHullConvexHullLib.obj
 0001:000529f0       ??0?$ScopedPointer@UQuickHullHalfEdge@local@@VTempAllocator@shdfnd@physx@@@shdfnd@physx@@QEAA@XZ 00000001800539f0 f i QuickHullConvexHullLib.obj
 0001:00052a20       ??0?$ScopedPointer@VPxVec3@physx@@VTempAllocator@shdfnd@2@@shdfnd@physx@@QEAA@XZ 0000000180053a20 f i QuickHullConvexHullLib.obj
 0001:00052a50       ??0ExpandPoint@local@@QEAA@AEBU01@@Z 0000000180053a50 f i QuickHullConvexHullLib.obj
 0001:00052ad0       ??0ExpandPoint@local@@QEAA@XZ 0000000180053ad0 f i QuickHullConvexHullLib.obj
 0001:00052b10       ??0PxVec3@physx@@QEAA@W4PxZERO@1@@Z 0000000180053b10 f i QuickHullConvexHullLib.obj
 0001:00052b70       ??0QuickHullFace@local@@QEAA@I@Z 0000000180053b70 f i QuickHullConvexHullLib.obj
 0001:00052c60       ??0QuickHullFace@local@@QEAA@XZ 0000000180053c60 f i QuickHullConvexHullLib.obj
 0001:00052d30       ??0QuickHullHalfEdge@local@@QEAA@I@Z 0000000180053d30 f i QuickHullConvexHullLib.obj
 0001:00052db0       ??0QuickHullVertex@local@@QEAA@XZ 0000000180053db0 f i QuickHullConvexHullLib.obj
 0001:00052de0       ??1?$Array@PEAUQuickHullFace@local@@VNamedAllocator@shdfnd@physx@@@shdfnd@physx@@QEAA@XZ 0000000180053de0 f i QuickHullConvexHullLib.obj
 0001:00052e70       ??1?$Array@PEAUQuickHullHalfEdge@local@@VNamedAllocator@shdfnd@physx@@@shdfnd@physx@@QEAA@XZ 0000000180053e70 f i QuickHullConvexHullLib.obj
 0001:00052f00       ??1?$Array@PEAUQuickHullVertex@local@@VNamedAllocator@shdfnd@physx@@@shdfnd@physx@@QEAA@XZ 0000000180053f00 f i QuickHullConvexHullLib.obj
 0001:00052f90       ??1?$Array@UExpandPoint@local@@VNamedAllocator@shdfnd@physx@@@shdfnd@physx@@QEAA@XZ 0000000180053f90 f i QuickHullConvexHullLib.obj
 0001:00053020       ??1?$MemBlock@UQuickHullFace@local@@$00@local@@QEAA@XZ 0000000180054020 f i QuickHullConvexHullLib.obj
 0001:000530e0       ??1?$MemBlock@UQuickHullHalfEdge@local@@$0A@@local@@QEAA@XZ 00000001800540e0 f i QuickHullConvexHullLib.obj
 0001:000531a0       ??1?$ScopedPointer@UQuickHullHalfEdge@local@@VTempAllocator@shdfnd@physx@@@shdfnd@physx@@QEAA@XZ 00000001800541a0 f i QuickHullConvexHullLib.obj
 0001:000531e0       ??1?$ScopedPointer@VPxVec3@physx@@VTempAllocator@shdfnd@2@@shdfnd@physx@@QEAA@XZ 00000001800541e0 f i QuickHullConvexHullLib.obj
 0001:00053220       ??1QuickHullFace@local@@QEAA@XZ 0000000180054220 f i QuickHullConvexHullLib.obj
 0001:00053230       ??4QuickHullVertex@local@@QEAAAEAU01@AEBU01@@Z 0000000180054230 f i QuickHullConvexHullLib.obj
 0001:000532b0       ??8ExpandPoint@local@@QEBA_NAEBU01@@Z 00000001800542b0 f i QuickHullConvexHullLib.obj
 0001:00053360       ??8QuickHullVertex@local@@QEBA_NAEBU01@@Z 0000000180054360 f i QuickHullConvexHullLib.obj
 0001:000533a0       ??A?$Array@IVNamedAllocator@shdfnd@physx@@@shdfnd@physx@@QEBAAEBII@Z 00000001800543a0 f i QuickHullConvexHullLib.obj
 0001:00053440       ??A?$Array@PEAUQuickHullFace@local@@VNamedAllocator@shdfnd@physx@@@shdfnd@physx@@QEAAAEAPEAUQuickHullFace@local@@I@Z 0000000180054440 f i QuickHullConvexHullLib.obj
 0001:000534e0       ??A?$Array@PEAUQuickHullFace@local@@VNamedAllocator@shdfnd@physx@@@shdfnd@physx@@QEBAAEBQEAUQuickHullFace@local@@I@Z 00000001800544e0 f i QuickHullConvexHullLib.obj
 0001:00053580       ??A?$Array@PEAUQuickHullHalfEdge@local@@VNamedAllocator@shdfnd@physx@@@shdfnd@physx@@QEAAAEAPEAUQuickHullHalfEdge@local@@I@Z 0000000180054580 f i QuickHullConvexHullLib.obj
 0001:00053620       ??A?$Array@PEAUQuickHullHalfEdge@local@@VNamedAllocator@shdfnd@physx@@@shdfnd@physx@@QEBAAEBQEAUQuickHullHalfEdge@local@@I@Z 0000000180054620 f i QuickHullConvexHullLib.obj
 0001:000536c0       ??A?$Array@PEAUQuickHullVertex@local@@VNamedAllocator@shdfnd@physx@@@shdfnd@physx@@QEAAAEAPEAUQuickHullVertex@local@@I@Z 00000001800546c0 f i QuickHullConvexHullLib.obj
 0001:00053760       ??A?$Array@UExpandPoint@local@@VNamedAllocator@shdfnd@physx@@@shdfnd@physx@@QEAAAEAUExpandPoint@local@@I@Z 0000000180054760 f i QuickHullConvexHullLib.obj
 0001:00053800       ??B?$ScopedPointer@UQuickHullHalfEdge@local@@VTempAllocator@shdfnd@physx@@@shdfnd@physx@@QEBAPEAUQuickHullHalfEdge@local@@XZ 0000000180054800 f i QuickHullConvexHullLib.obj
 0001:00053820       ??B?$ScopedPointer@VPxVec3@physx@@VTempAllocator@shdfnd@2@@shdfnd@physx@@QEBAPEAVPxVec3@2@XZ 0000000180054820 f i QuickHullConvexHullLib.obj
 0001:00053840       ??_GQuickHull@local@@QEAAPEAXI@Z 0000000180054840 f i QuickHullConvexHullLib.obj
 0001:000538b0       ??_GQuickHullConvexHullLib@physx@@UEAAPEAXI@Z 00000001800548b0 f i QuickHullConvexHullLib.obj
 0001:000538b0       ??_EQuickHullConvexHullLib@physx@@UEAAPEAXI@Z 00000001800548b0 f i QuickHullConvexHullLib.obj
 0001:00053920       ??__G@YAXPEAX0_K1P6APEAX00@Z@Z 0000000180054920 f i QuickHullConvexHullLib.obj
 0001:000539e0       ?allocate@?$Array@PEAUQuickHullFace@local@@VNamedAllocator@shdfnd@physx@@@shdfnd@physx@@IEAAPEAPEAUQuickHullFace@local@@I@Z 00000001800549e0 f i QuickHullConvexHullLib.obj
 0001:00053a90       ?allocate@?$Array@PEAUQuickHullHalfEdge@local@@VNamedAllocator@shdfnd@physx@@@shdfnd@physx@@IEAAPEAPEAUQuickHullHalfEdge@local@@I@Z 0000000180054a90 f i QuickHullConvexHullLib.obj
 0001:00053b40       ?allocate@?$Array@PEAUQuickHullVertex@local@@VNamedAllocator@shdfnd@physx@@@shdfnd@physx@@IEAAPEAPEAUQuickHullVertex@local@@I@Z 0000000180054b40 f i QuickHullConvexHullLib.obj
 0001:00053bf0       ?allocate@?$Array@UExpandPoint@local@@VNamedAllocator@shdfnd@physx@@@shdfnd@physx@@IEAAPEAUExpandPoint@local@@I@Z 0000000180054bf0 f i QuickHullConvexHullLib.obj
 0001:00053ca0       ?allocate@?$ReflectionAllocator@VQuickHull@local@@@shdfnd@physx@@QEAAPEAX_KPEBDH@Z 0000000180054ca0 f i QuickHullConvexHullLib.obj
 0001:00053d40       ?capacity@?$Array@PEAUQuickHullFace@local@@VNamedAllocator@shdfnd@physx@@@shdfnd@physx@@QEBAIXZ 0000000180054d40 f i QuickHullConvexHullLib.obj
 0001:00053d60       ?capacity@?$Array@PEAUQuickHullHalfEdge@local@@VNamedAllocator@shdfnd@physx@@@shdfnd@physx@@QEBAIXZ 0000000180054d60 f i QuickHullConvexHullLib.obj
 0001:00053d80       ?capacity@?$Array@PEAUQuickHullVertex@local@@VNamedAllocator@shdfnd@physx@@@shdfnd@physx@@QEBAIXZ 0000000180054d80 f i QuickHullConvexHullLib.obj
 0001:00053da0       ?capacity@?$Array@UExpandPoint@local@@VNamedAllocator@shdfnd@physx@@@shdfnd@physx@@QEBAIXZ 0000000180054da0 f i QuickHullConvexHullLib.obj
 0001:00053dc0       ?capacityIncrement@?$Array@PEAUQuickHullFace@local@@VNamedAllocator@shdfnd@physx@@@shdfnd@physx@@IEBAIXZ 0000000180054dc0 f i QuickHullConvexHullLib.obj
 0001:00053e10       ?capacityIncrement@?$Array@PEAUQuickHullHalfEdge@local@@VNamedAllocator@shdfnd@physx@@@shdfnd@physx@@IEBAIXZ 0000000180054e10 f i QuickHullConvexHullLib.obj
 0001:00053e60       ?capacityIncrement@?$Array@PEAUQuickHullVertex@local@@VNamedAllocator@shdfnd@physx@@@shdfnd@physx@@IEBAIXZ 0000000180054e60 f i QuickHullConvexHullLib.obj
 0001:00053eb0       ?capacityIncrement@?$Array@UExpandPoint@local@@VNamedAllocator@shdfnd@physx@@@shdfnd@physx@@IEBAIXZ 0000000180054eb0 f i QuickHullConvexHullLib.obj
 0001:00053f00       ?clear@?$Array@PEAUQuickHullFace@local@@VNamedAllocator@shdfnd@physx@@@shdfnd@physx@@QEAAXXZ 0000000180054f00 f i QuickHullConvexHullLib.obj
 0001:00053f50       ?clear@?$Array@PEAUQuickHullHalfEdge@local@@VNamedAllocator@shdfnd@physx@@@shdfnd@physx@@QEAAXXZ 0000000180054f50 f i QuickHullConvexHullLib.obj
 0001:00053fa0       ?clear@?$Array@PEAUQuickHullVertex@local@@VNamedAllocator@shdfnd@physx@@@shdfnd@physx@@QEAAXXZ 0000000180054fa0 f i QuickHullConvexHullLib.obj
 0001:00053ff0       ?computeNormalAndCentroid@QuickHullFace@local@@QEAAXXZ 0000000180054ff0 f i QuickHullConvexHullLib.obj
 0001:000543a0       ?copy@?$Array@PEAUQuickHullFace@local@@VNamedAllocator@shdfnd@physx@@@shdfnd@physx@@KAXPEAPEAUQuickHullFace@local@@0PEBQEAU45@@Z 00000001800553a0 f i QuickHullConvexHullLib.obj
 0001:00054480       ?copy@?$Array@PEAUQuickHullHalfEdge@local@@VNamedAllocator@shdfnd@physx@@@shdfnd@physx@@KAXPEAPEAUQuickHullHalfEdge@local@@0PEBQEAU45@@Z 0000000180055480 f i QuickHullConvexHullLib.obj
 0001:00054560       ?copy@?$Array@PEAUQuickHullVertex@local@@VNamedAllocator@shdfnd@physx@@@shdfnd@physx@@KAXPEAPEAUQuickHullVertex@local@@0PEBQEAU45@@Z 0000000180055560 f i QuickHullConvexHullLib.obj
 0001:00054640       ?copy@?$Array@UExpandPoint@local@@VNamedAllocator@shdfnd@physx@@@shdfnd@physx@@KAXPEAUExpandPoint@local@@0PEBU45@@Z 0000000180055640 f i QuickHullConvexHullLib.obj
 0001:00054730       ?deallocate@?$Array@PEAUQuickHullFace@local@@VNamedAllocator@shdfnd@physx@@@shdfnd@physx@@IEAAXPEAX@Z 0000000180055730 f i QuickHullConvexHullLib.obj
 0001:00054760       ?deallocate@?$Array@PEAUQuickHullHalfEdge@local@@VNamedAllocator@shdfnd@physx@@@shdfnd@physx@@IEAAXPEAX@Z 0000000180055760 f i QuickHullConvexHullLib.obj
 0001:00054790       ?deallocate@?$Array@PEAUQuickHullVertex@local@@VNamedAllocator@shdfnd@physx@@@shdfnd@physx@@IEAAXPEAX@Z 0000000180055790 f i QuickHullConvexHullLib.obj
 0001:000547c0       ?deallocate@?$Array@UExpandPoint@local@@VNamedAllocator@shdfnd@physx@@@shdfnd@physx@@IEAAXPEAX@Z 00000001800557c0 f i QuickHullConvexHullLib.obj
 0001:000547f0       ?destroy@?$Array@PEAUQuickHullFace@local@@VNamedAllocator@shdfnd@physx@@@shdfnd@physx@@KAXPEAPEAUQuickHullFace@local@@0@Z 00000001800557f0 f i QuickHullConvexHullLib.obj
 0001:00054840       ?destroy@?$Array@PEAUQuickHullHalfEdge@local@@VNamedAllocator@shdfnd@physx@@@shdfnd@physx@@KAXPEAPEAUQuickHullHalfEdge@local@@0@Z 0000000180055840 f i QuickHullConvexHullLib.obj
 0001:00054890       ?destroy@?$Array@PEAUQuickHullVertex@local@@VNamedAllocator@shdfnd@physx@@@shdfnd@physx@@KAXPEAPEAUQuickHullVertex@local@@0@Z 0000000180055890 f i QuickHullConvexHullLib.obj
 0001:000548e0       ?destroy@?$Array@UExpandPoint@local@@VNamedAllocator@shdfnd@physx@@@shdfnd@physx@@KAXPEAUExpandPoint@local@@0@Z 00000001800558e0 f i QuickHullConvexHullLib.obj
 0001:00054930       ?distanceToPlane@QuickHullFace@local@@QEBAMVPxVec3@physx@@@Z 0000000180055930 f i QuickHullConvexHullLib.obj
 0001:00054970       ?getEdge@QuickHullFace@local@@QEBAPEAUQuickHullHalfEdge@2@I@Z 0000000180055970 f i QuickHullConvexHullLib.obj
 0001:000549d0       ?getFreeHullFace@QuickHull@local@@IEAAPEAUQuickHullFace@2@XZ 00000001800559d0 f i QuickHullConvexHullLib.obj
 0001:00054a00       ?getFreeHullHalfEdge@QuickHull@local@@IEAAPEAUQuickHullHalfEdge@2@XZ 0000000180055a00 f i QuickHullConvexHullLib.obj
 0001:00054a30       ?getFreeItem@?$MemBlock@UQuickHullFace@local@@$00@local@@QEAAPEAUQuickHullFace@2@XZ 0000000180055a30 f i QuickHullConvexHullLib.obj
 0001:00054d00       ?getFreeItem@?$MemBlock@UQuickHullHalfEdge@local@@$0A@@local@@QEAAPEAUQuickHullHalfEdge@2@XZ 0000000180055d00 f i QuickHullConvexHullLib.obj
 0001:00054fd0       ?getHead@QuickHullHalfEdge@local@@QEBAAEBUQuickHullVertex@2@XZ 0000000180055fd0 f i QuickHullConvexHullLib.obj
 0001:00055060       ?getItem@?$MemBlock@UQuickHullFace@local@@$00@local@@QEAAPEAUQuickHullFace@2@I@Z 0000000180056060 f i QuickHullConvexHullLib.obj
 0001:000551b0       ?getName@?$ReflectionAllocator@VQuickHull@local@@@shdfnd@physx@@CAPEBDXZ 00000001800561b0 f i QuickHullConvexHullLib.obj
 0001:00055200       ?getNbHullVerts@QuickHull@local@@IEAAIXZ 0000000180056200 f i QuickHullConvexHullLib.obj
 0001:00055220       ?getOppositeFace@QuickHullHalfEdge@local@@QEBAPEAUQuickHullFace@2@XZ 0000000180056220 f i QuickHullConvexHullLib.obj
 0001:00055240       ?getTail@QuickHullHalfEdge@local@@QEBAAEBUQuickHullVertex@2@XZ 0000000180056240 f i QuickHullConvexHullLib.obj
 0001:00055250       ?grow@?$Array@PEAUQuickHullFace@local@@VNamedAllocator@shdfnd@physx@@@shdfnd@physx@@IEAAXI@Z 0000000180056250 f i QuickHullConvexHullLib.obj
 0001:000552f0       ?grow@?$Array@PEAUQuickHullHalfEdge@local@@VNamedAllocator@shdfnd@physx@@@shdfnd@physx@@IEAAXI@Z 00000001800562f0 f i QuickHullConvexHullLib.obj
 0001:00055390       ?grow@?$Array@PEAUQuickHullVertex@local@@VNamedAllocator@shdfnd@physx@@@shdfnd@physx@@IEAAXI@Z 0000000180056390 f i QuickHullConvexHullLib.obj
 0001:00055430       ?grow@?$Array@UExpandPoint@local@@VNamedAllocator@shdfnd@physx@@@shdfnd@physx@@IEAAXI@Z 0000000180056430 f i QuickHullConvexHullLib.obj
 0001:000554d0       ?growAndPushBack@?$Array@PEAUQuickHullFace@local@@VNamedAllocator@shdfnd@physx@@@shdfnd@physx@@IEAAAEAPEAUQuickHullFace@local@@AEBQEAU45@@Z 00000001800564d0 f i QuickHullConvexHullLib.obj
 0001:000556b0       ?growAndPushBack@?$Array@PEAUQuickHullHalfEdge@local@@VNamedAllocator@shdfnd@physx@@@shdfnd@physx@@IEAAAEAPEAUQuickHullHalfEdge@local@@AEBQEAU45@@Z 00000001800566b0 f i QuickHullConvexHullLib.obj
 0001:00055890       ?growAndPushBack@?$Array@PEAUQuickHullVertex@local@@VNamedAllocator@shdfnd@physx@@@shdfnd@physx@@IEAAAEAPEAUQuickHullVertex@local@@AEBQEAU45@@Z 0000000180056890 f i QuickHullConvexHullLib.obj
 0001:00055a70       ?growAndPushBack@?$Array@UExpandPoint@local@@VNamedAllocator@shdfnd@physx@@@shdfnd@physx@@IEAAAEAUExpandPoint@local@@AEBU45@@Z 0000000180056a70 f i QuickHullConvexHullLib.obj
 0001:00055c60       ?init@?$MemBlock@UQuickHullFace@local@@$00@local@@QEAAXI@Z 0000000180056c60 f i QuickHullConvexHullLib.obj
 0001:00055de0       ?init@?$MemBlock@UQuickHullHalfEdge@local@@$0A@@local@@QEAAXI@Z 0000000180056de0 f i QuickHullConvexHullLib.obj
 0001:00055f60       ?isArrayOfPOD@?$Array@PEAUQuickHullFace@local@@VNamedAllocator@shdfnd@physx@@@shdfnd@physx@@SA_NXZ 0000000180056f60 f i QuickHullConvexHullLib.obj
 0001:00055f70       ?isArrayOfPOD@?$Array@PEAUQuickHullHalfEdge@local@@VNamedAllocator@shdfnd@physx@@@shdfnd@physx@@SA_NXZ 0000000180056f70 f i QuickHullConvexHullLib.obj
 0001:00055f80       ?isArrayOfPOD@?$Array@PEAUQuickHullVertex@local@@VNamedAllocator@shdfnd@physx@@@shdfnd@physx@@SA_NXZ 0000000180056f80 f i QuickHullConvexHullLib.obj
 0001:00055f90       ?isArrayOfPOD@?$Array@UExpandPoint@local@@VNamedAllocator@shdfnd@physx@@@shdfnd@physx@@SA_NXZ 0000000180056f90 f i QuickHullConvexHullLib.obj
 0001:00055fa0       ?isInUserMemory@?$Array@PEAUQuickHullFace@local@@VNamedAllocator@shdfnd@physx@@@shdfnd@physx@@QEBAIXZ 0000000180056fa0 f i QuickHullConvexHullLib.obj
 0001:00055fc0       ?isInUserMemory@?$Array@PEAUQuickHullHalfEdge@local@@VNamedAllocator@shdfnd@physx@@@shdfnd@physx@@QEBAIXZ 0000000180056fc0 f i QuickHullConvexHullLib.obj
 0001:00055fe0       ?isInUserMemory@?$Array@PEAUQuickHullVertex@local@@VNamedAllocator@shdfnd@physx@@@shdfnd@physx@@QEBAIXZ 0000000180056fe0 f i QuickHullConvexHullLib.obj
 0001:00056000       ?isInUserMemory@?$Array@UExpandPoint@local@@VNamedAllocator@shdfnd@physx@@@shdfnd@physx@@QEBAIXZ 0000000180057000 f i QuickHullConvexHullLib.obj
 0001:00056020       ?isTriangle@QuickHullFace@local@@AEBA_NXZ 0000000180057020 f i QuickHullConvexHullLib.obj
 0001:00056060       ?pushBack@?$Array@PEAUQuickHullFace@local@@VNamedAllocator@shdfnd@physx@@@shdfnd@physx@@QEAAAEAPEAUQuickHullFace@local@@AEBQEAU45@@Z 0000000180057060 f i QuickHullConvexHullLib.obj
 0001:00056130       ?pushBack@?$Array@PEAUQuickHullHalfEdge@local@@VNamedAllocator@shdfnd@physx@@@shdfnd@physx@@QEAAAEAPEAUQuickHullHalfEdge@local@@AEBQEAU45@@Z 0000000180057130 f i QuickHullConvexHullLib.obj
 0001:00056200       ?pushBack@?$Array@PEAUQuickHullVertex@local@@VNamedAllocator@shdfnd@physx@@@shdfnd@physx@@QEAAAEAPEAUQuickHullVertex@local@@AEBQEAU45@@Z 0000000180057200 f i QuickHullConvexHullLib.obj
 0001:000562d0       ?pushBack@?$Array@UExpandPoint@local@@VNamedAllocator@shdfnd@physx@@@shdfnd@physx@@QEAAAEAUExpandPoint@local@@AEBU45@@Z 00000001800572d0 f i QuickHullConvexHullLib.obj
 0001:000563a0       ?recreate@?$Array@PEAUQuickHullFace@local@@VNamedAllocator@shdfnd@physx@@@shdfnd@physx@@IEAAXI@Z 00000001800573a0 f i QuickHullConvexHullLib.obj
 0001:00056500       ?recreate@?$Array@PEAUQuickHullHalfEdge@local@@VNamedAllocator@shdfnd@physx@@@shdfnd@physx@@IEAAXI@Z 0000000180057500 f i QuickHullConvexHullLib.obj
 0001:00056660       ?recreate@?$Array@PEAUQuickHullVertex@local@@VNamedAllocator@shdfnd@physx@@@shdfnd@physx@@IEAAXI@Z 0000000180057660 f i QuickHullConvexHullLib.obj
 0001:000567c0       ?recreate@?$Array@UExpandPoint@local@@VNamedAllocator@shdfnd@physx@@@shdfnd@physx@@IEAAXI@Z 00000001800577c0 f i QuickHullConvexHullLib.obj
 0001:00056920       ?reserve@?$Array@PEAUQuickHullFace@local@@VNamedAllocator@shdfnd@physx@@@shdfnd@physx@@QEAAXI@Z 0000000180057920 f i QuickHullConvexHullLib.obj
 0001:00056960       ?reserve@?$Array@PEAUQuickHullHalfEdge@local@@VNamedAllocator@shdfnd@physx@@@shdfnd@physx@@QEAAXI@Z 0000000180057960 f i QuickHullConvexHullLib.obj
 0001:000569a0       ?reserve@?$Array@PEAUQuickHullVertex@local@@VNamedAllocator@shdfnd@physx@@@shdfnd@physx@@QEAAXI@Z 00000001800579a0 f i QuickHullConvexHullLib.obj
 0001:000569e0       ?reserve@?$Array@UExpandPoint@local@@VNamedAllocator@shdfnd@physx@@@shdfnd@physx@@QEAAXI@Z 00000001800579e0 f i QuickHullConvexHullLib.obj
 0001:00056a20       ?reset@?$MemBlock@UQuickHullFace@local@@$00@local@@QEAAXXZ 0000000180057a20 f i QuickHullConvexHullLib.obj
 0001:00056b00       ?reset@?$MemBlock@UQuickHullHalfEdge@local@@$0A@@local@@QEAAXXZ 0000000180057b00 f i QuickHullConvexHullLib.obj
 0001:00056be0       ?setTwin@QuickHullHalfEdge@local@@QEAAXPEAU12@@Z 0000000180057be0 f i QuickHullConvexHullLib.obj
 0001:00056c10       ?size@?$Array@PEAUQuickHullFace@local@@VNamedAllocator@shdfnd@physx@@@shdfnd@physx@@QEBAIXZ 0000000180057c10 f i QuickHullConvexHullLib.obj
 0001:00056c30       ?size@?$Array@PEAUQuickHullHalfEdge@local@@VNamedAllocator@shdfnd@physx@@@shdfnd@physx@@QEBAIXZ 0000000180057c30 f i QuickHullConvexHullLib.obj
 0001:00056c50       ?size@?$Array@PEAUQuickHullVertex@local@@VNamedAllocator@shdfnd@physx@@@shdfnd@physx@@QEBAIXZ 0000000180057c50 f i QuickHullConvexHullLib.obj
 0001:00056c70       ?size@?$Array@UExpandPoint@local@@VNamedAllocator@shdfnd@physx@@@shdfnd@physx@@QEBAIXZ 0000000180057c70 f i QuickHullConvexHullLib.obj
 0001:00056d10       ?computeVolumeIntegrals@physx@@YA_NAEBVPxSimpleTriangleMesh@1@MAEAUPxIntegrals@1@@Z 0000000180057d10 f   VolumeIntegration.obj
 0001:00056da0       ?computeVolumeIntegralsEberly@physx@@YA_NAEBVPxConvexMeshDesc@1@MAEAUPxIntegrals@1@AEBVPxVec3@1@@Z 0000000180057da0 f   VolumeIntegration.obj
 0001:00056e10       ?computeVolumeIntegralsEberlySIMD@physx@@YA_NAEBVPxConvexMeshDesc@1@MAEAUPxIntegrals@1@AEBVPxVec3@1@@Z 0000000180057e10 f   VolumeIntegration.obj
 0001:0005d500       ??$swap@VPxVec3@physx@@@shdfnd@physx@@YAXAEAVPxVec3@1@0@Z 000000018005e500 f i VolumeIntegration.obj
 0001:0005d550       ??0PxSimpleTriangleMesh@physx@@QEAA@XZ 000000018005e550 f i VolumeIntegration.obj
 0001:0005d5b0       ??4?$PxFlags@W4Enum@PxMeshFlag@physx@@G@physx@@QEAAAEAV01@AEBV01@@Z 000000018005e5b0 f i VolumeIntegration.obj
 0001:0005d5e0       ??4PxSimpleTriangleMesh@physx@@QEAAAEAV01@AEBV01@@Z 000000018005e5e0 f i VolumeIntegration.obj
 0001:0005d660       ?FAllGrtr@aos@shdfnd@physx@@YAIT__m128@@0@Z 000000018005e660 f i VolumeIntegration.obj
 0001:0005d7a0       ?V4Cross@aos@shdfnd@physx@@YA?AT__m128@@T4@0@Z 000000018005e7a0 f i VolumeIntegration.obj
 0001:0005d8d0       ?V4Dot3@aos@shdfnd@physx@@YA?AT__m128@@T4@0@Z 000000018005e8d0 f i VolumeIntegration.obj
 0001:0005d9c0       ?V4PermYZXW@aos@shdfnd@physx@@YA?AT__m128@@T4@@Z 000000018005e9c0 f i VolumeIntegration.obj
 0001:0005d9f0       ?V4ScaleInv@aos@shdfnd@physx@@YA?AT__m128@@T4@0@Z 000000018005e9f0 f i VolumeIntegration.obj
 0001:0005dab0       ?Vec4V_From_PxVec3_WUndefined@aos@shdfnd@physx@@YA?AT__m128@@AEBVPxVec3@3@@Z 000000018005eab0 f i VolumeIntegration.obj
 0001:0005db10       ?isZero@PxVec3@physx@@QEBA_NXZ 000000018005eb10 f i VolumeIntegration.obj
 0001:0005e380       ?ComputeNbBoundaryEdges@AdjTriangle@physx@@QEBAIXZ 000000018005f380 f   Adjacencies.obj
 0001:0005e410       ?ComputeNbNeighbors@AdjTriangle@physx@@QEBAIXZ 000000018005f410 f   Adjacencies.obj
 0001:0005e4a0       ?HasNeighbor@AdjTriangle@physx@@QEBA_NIPEAI@Z 000000018005f4a0 f   Adjacencies.obj
 0001:0005e5b0       ?Flip@AdjTriangle@physx@@QEAAXXZ 000000018005f5b0 f   Adjacencies.obj
 0001:0005e600       ??0Adjacencies@physx@@QEAA@XZ 000000018005f600 f   Adjacencies.obj
 0001:0005e630       ??1Adjacencies@physx@@QEAA@XZ 000000018005f630 f   Adjacencies.obj
 0001:0005e690       ?Load@Adjacencies@physx@@QEAA_NAEAVPxInputStream@2@@Z 000000018005f690 f   Adjacencies.obj
 0001:0005e820       ?ComputeNbBoundaryEdges@Adjacencies@physx@@QEBAIXZ 000000018005f820 f   Adjacencies.obj
 0001:0005e8a0       ?GetBoundaryVertices@Adjacencies@physx@@QEBA_NIPEA_NPEBU?$TriangleT@I@Gu@2@@Z 000000018005f8a0 f   Adjacencies.obj
 0001:0005ebb0       ?MakeLastRef@Adjacencies@physx@@QEAA_NAEAVAdjTriangle@2@IPEAU?$TriangleT@I@Gu@2@@Z 000000018005fbb0 f   Adjacencies.obj
 0001:0005ef10       ?AssignNewEdgeCode@Adjacencies@physx@@AEAAXIE@Z 000000018005ff10 f   Adjacencies.obj
 0001:0005efb0       ??0AdjacenciesBuilder@physx@@QEAA@XZ 000000018005ffb0 f   Adjacencies.obj
 0001:0005efe0       ??1AdjacenciesBuilder@physx@@QEAA@XZ 000000018005ffe0 f   Adjacencies.obj
 0001:0005f000       ?Init@AdjacenciesBuilder@physx@@QEAA_NAEBUADJACENCIESCREATE@2@@Z 0000000180060000 f   Adjacencies.obj
 0001:00060af0       ??$?_UV?$ReflectionAllocator@VAdjEdge@@@shdfnd@physx@@@UserAllocated@shdfnd@physx@@SAPEAX_KV?$ReflectionAllocator@VAdjEdge@@@12@PEBDH@Z 0000000180061af0 f i Adjacencies.obj
 0001:00060b40       ??$?_UV?$ReflectionAllocator@VAdjTriangle@physx@@@shdfnd@physx@@@UserAllocated@shdfnd@physx@@SAPEAX_KV?$ReflectionAllocator@VAdjTriangle@physx@@@12@PEBDH@Z 0000000180061b40 f i Adjacencies.obj
 0001:00060b90       ??0?$ReflectionAllocator@VAdjEdge@@@shdfnd@physx@@QEAA@PEBD@Z 0000000180061b90 f i Adjacencies.obj
 0001:00060bb0       ??0?$ReflectionAllocator@VAdjTriangle@physx@@@shdfnd@physx@@QEAA@PEBD@Z 0000000180061bb0 f i Adjacencies.obj
 0001:00060bd0       ??0?$TriangleT@I@Gu@physx@@QEAA@XZ 0000000180061bd0 f i Adjacencies.obj
 0001:00060be0       ??0AdjEdge@@QEAA@XZ        0000000180061be0 f i Adjacencies.obj
 0001:00060bf0       ??0AdjTriangle@physx@@QEAA@XZ 0000000180061bf0 f i Adjacencies.obj
 0001:00060c00       ??1AdjEdge@@QEAA@XZ        0000000180061c00 f i Adjacencies.obj
 0001:00060c10       ??1AdjTriangle@physx@@QEAA@XZ 0000000180061c10 f i Adjacencies.obj
 0001:00060c20       ??_EAdjEdge@@QEAAPEAXI@Z   0000000180061c20 f i Adjacencies.obj
 0001:00060d30       ??_EAdjTriangle@physx@@QEAAPEAXI@Z 0000000180061d30 f i Adjacencies.obj
 0001:00060e40       ??_I@YAXPEAX_K1P6AX0@Z@Z   0000000180061e40 f i Adjacencies.obj
 0001:00060f00       ??_VUserAllocated@shdfnd@physx@@SAXPEAX@Z 0000000180061f00 f i Adjacencies.obj
 0001:00060f30       ?allocate@?$ReflectionAllocator@VAdjEdge@@@shdfnd@physx@@QEAAPEAX_KPEBDH@Z 0000000180061f30 f i Adjacencies.obj
 0001:00060fd0       ?allocate@?$ReflectionAllocator@VAdjTriangle@physx@@@shdfnd@physx@@QEAAPEAX_KPEBDH@Z 0000000180061fd0 f i Adjacencies.obj
 0001:00061070       ?findEdge@?$TriangleT@I@Gu@physx@@QEBAEII@Z 0000000180062070 f i Adjacencies.obj
 0001:00061220       ?getName@?$ReflectionAllocator@VAdjEdge@@@shdfnd@physx@@CAPEBDXZ 0000000180062220 f i Adjacencies.obj
 0001:00061270       ?getName@?$ReflectionAllocator@VAdjTriangle@physx@@@shdfnd@physx@@CAPEBDXZ 0000000180062270 f i Adjacencies.obj
 0001:000612c0       PxCreateCooking            00000001800622c0 f   Cooking.obj
 0001:000613b0       ?release@Cooking@physx@@UEAAXXZ 00000001800623b0 f   Cooking.obj
 0001:00061410       ?setParams@Cooking@physx@@UEAAXAEBUPxCookingParams@2@@Z 0000000180062410 f   Cooking.obj
 0001:00061440       ?getParams@Cooking@physx@@UEBAAEBUPxCookingParams@2@XZ 0000000180062440 f   Cooking.obj
 0001:00061460       ?platformMismatch@Cooking@physx@@UEBA_NXZ 0000000180062460 f   Cooking.obj
 0001:000614f0       ?cookTriangleMesh@Cooking@physx@@UEBA_NAEBVPxTriangleMeshDesc@2@AEAVPxOutputStream@2@PEAW4Enum@PxTriangleMeshCookingResult@2@@Z 00000001800624f0 f   Cooking.obj
 0001:00061610       ?createTriangleMesh@Cooking@physx@@UEBAPEAVPxTriangleMesh@2@AEBVPxTriangleMeshDesc@2@AEAVPxPhysicsInsertionCallback@2@@Z 0000000180062610 f   Cooking.obj
 0001:00061710       ?validateTriangleMesh@Cooking@physx@@UEBA_NAEBVPxTriangleMeshDesc@2@@Z 0000000180062710 f   Cooking.obj
 0001:000617e0       ?cookConvexMesh@Cooking@physx@@UEBA_NAEBVPxConvexMeshDesc@2@AEAVPxOutputStream@2@PEAW4Enum@PxConvexMeshCookingResult@2@@Z 00000001800627e0 f   Cooking.obj
 0001:00061bf0       ?createConvexMesh@Cooking@physx@@UEBAPEAVPxConvexMesh@2@AEBVPxConvexMeshDesc@2@AEAVPxPhysicsInsertionCallback@2@@Z 0000000180062bf0 f   Cooking.obj
 0001:000620c0       ?validateConvexMesh@Cooking@physx@@UEBA_NAEBVPxConvexMeshDesc@2@@Z 00000001800630c0 f   Cooking.obj
 0001:00062140       ?computeHullPolygons@Cooking@physx@@UEBA_NAEBVPxSimpleTriangleMesh@2@AEAVPxAllocatorCallback@2@AEAIAEAPEAVPxVec3@2@2AEAPEAI2AEAPEAUPxHullPolygon@2@@Z 0000000180063140 f   Cooking.obj
 0001:00062410       ?cookHeightField@Cooking@physx@@UEBA_NAEBVPxHeightFieldDesc@2@AEAVPxOutputStream@2@@Z 0000000180063410 f   Cooking.obj
 0001:00062580       ?createHeightField@Cooking@physx@@UEBAPEAVPxHeightField@2@AEBVPxHeightFieldDesc@2@AEAVPxPhysicsInsertionCallback@2@@Z 0000000180063580 f   Cooking.obj
 0001:000628a0       ?cookConvexMeshInternal@Cooking@physx@@AEBA_NAEBVPxConvexMeshDesc@2@AEAVConvexMeshBuilder@2@PEAVConvexHullLib@2@PEAW4Enum@PxConvexMeshCookingResult@2@@Z 00000001800638a0 f   Cooking.obj
 0001:00062b70       ?cookTriangleMesh@Cooking@physx@@AEBA_NAEAVTriangleMeshBuilder@2@AEBVPxTriangleMeshDesc@2@AEAVPxOutputStream@2@PEAW4Enum@PxTriangleMeshCookingResult@2@@Z 0000000180063b70 f   Cooking.obj
 0001:00062c70       ?createTriangleMesh@Cooking@physx@@AEBAPEAVPxTriangleMesh@2@AEAVTriangleMeshBuilder@2@AEBVPxTriangleMeshDesc@2@AEAVPxPhysicsInsertionCallback@2@@Z 0000000180063c70 f   Cooking.obj
 0001:00063430       ??$?2V?$ReflectionAllocator@VCooking@physx@@@shdfnd@physx@@@UserAllocated@shdfnd@physx@@SAPEAX_KV?$ReflectionAllocator@VCooking@physx@@@12@PEBDH@Z 0000000180064430 f i Cooking.obj
 0001:00063480       ??$?2V?$ReflectionAllocator@VInflationConvexHullLib@physx@@@shdfnd@physx@@@UserAllocated@shdfnd@physx@@SAPEAX_KV?$ReflectionAllocator@VInflationConvexHullLib@physx@@@12@PEBDH@Z 0000000180064480 f i Cooking.obj
 0001:000634d0       ??$?2V?$ReflectionAllocator@VQuickHullConvexHullLib@physx@@@shdfnd@physx@@@UserAllocated@shdfnd@physx@@SAPEAX_KV?$ReflectionAllocator@VQuickHullConvexHullLib@physx@@@12@PEBDH@Z 00000001800644d0 f i Cooking.obj
 0001:00063520       ??$PX_UNUSED@VPxFoundation@physx@@@@YAXAEBVPxFoundation@physx@@@Z 0000000180064520 f i Cooking.obj
 0001:00063530       ??$PxMin@G@physx@@YAGGG@Z  0000000180064530 f i Cooking.obj
 0001:00063580       ??0?$PxBitAndDataT@I$0IAAAAAAA@@physx@@QEAA@I_N@Z 0000000180064580 f i Cooking.obj
 0001:000635e0       ??0?$PxFlags@W4Enum@PxHeightFieldFlag@physx@@G@physx@@QEAA@AEBV01@@Z 00000001800645e0 f i Cooking.obj
 0001:00063610       ??0?$ReflectionAllocator@VCooking@physx@@@shdfnd@physx@@QEAA@PEBD@Z 0000000180064610 f i Cooking.obj
 0001:00063630       ??0?$ReflectionAllocator@VHeightField@Gu@physx@@@shdfnd@physx@@QEAA@PEBD@Z 0000000180064630 f i Cooking.obj
 0001:00063650       ??0?$ReflectionAllocator@VInflationConvexHullLib@physx@@@shdfnd@physx@@QEAA@PEBD@Z 0000000180064650 f i Cooking.obj
 0001:00063670       ??0?$ReflectionAllocator@VQuickHullConvexHullLib@physx@@@shdfnd@physx@@QEAA@PEBD@Z 0000000180064670 f i Cooking.obj
 0001:00063690       ??0Cooking@physx@@QEAA@AEBUPxCookingParams@1@@Z 0000000180064690 f i Cooking.obj
 0001:000636f0       ??0PxConvexMeshDesc@physx@@QEAA@AEBV01@@Z 00000001800646f0 f i Cooking.obj
 0001:000637c0       ??0PxCooking@physx@@QEAA@XZ 00000001800647c0 f i Cooking.obj
 0001:000637e0       ??0PxCookingParams@physx@@QEAA@AEBU01@@Z 00000001800647e0 f i Cooking.obj
 0001:00063970       ??1Cooking@physx@@UEAA@XZ  0000000180064970 f i Cooking.obj
 0001:00063990       ??1PxCooking@physx@@MEAA@XZ 0000000180064990 f i Cooking.obj
 0001:000639b0       ??4?$PxFlags@W4Enum@PxMeshPreprocessingFlag@physx@@I@physx@@QEAAAEAV01@AEBV01@@Z 00000001800649b0 f i Cooking.obj
 0001:000639e0       ??4PxCookingParams@physx@@QEAAAEAU01@AEBU01@@Z 00000001800649e0 f i Cooking.obj
 0001:00063b70       ??9?$PxFlags@W4Enum@PxHeightFieldFlag@physx@@G@physx@@QEBA_NAEBV01@@Z 0000000180064b70 f i Cooking.obj
 0001:00063bc0       ??I?$PxFlags@W4Enum@PxHeightFieldFlag@physx@@G@physx@@QEBA?AV01@W4Enum@PxHeightFieldFlag@1@@Z 0000000180064bc0 f i Cooking.obj
 0001:00063c30       ??_ECooking@physx@@UEAAPEAXI@Z 0000000180064c30 f i Cooking.obj
 0001:00063c30       ??_GCooking@physx@@UEAAPEAXI@Z 0000000180064c30 f i Cooking.obj
 0001:00063ca0       ??_GPxCooking@physx@@MEAAPEAXI@Z 0000000180064ca0 f i Cooking.obj
 0001:00063ca0       ??_EPxCooking@physx@@MEAAPEAXI@Z 0000000180064ca0 f i Cooking.obj
 0001:00063cf0       ?allocate@?$ReflectionAllocator@VCooking@physx@@@shdfnd@physx@@QEAAPEAX_KPEBDH@Z 0000000180064cf0 f i Cooking.obj
 0001:00063d90       ?allocate@?$ReflectionAllocator@VHeightField@Gu@physx@@@shdfnd@physx@@QEAAPEAX_KPEBDH@Z 0000000180064d90 f i Cooking.obj
 0001:00063e30       ?allocate@?$ReflectionAllocator@VInflationConvexHullLib@physx@@@shdfnd@physx@@QEAAPEAX_KPEBDH@Z 0000000180064e30 f i Cooking.obj
 0001:00063ed0       ?allocate@?$ReflectionAllocator@VQuickHullConvexHullLib@physx@@@shdfnd@physx@@QEAAPEAX_KPEBDH@Z 0000000180064ed0 f i Cooking.obj
 0001:00063f70       ?getBigConvexData@ConvexMeshBuilder@physx@@QEBAPEAVBigConvexData@2@XZ 0000000180064f70 f i Cooking.obj
 0001:00063f90       ?getInertia@ConvexMeshBuilder@physx@@QEBAAEBVPxMat33@2@XZ 0000000180064f90 f i Cooking.obj
 0001:00063fb0       ?getMass@ConvexMeshBuilder@physx@@QEBAMXZ 0000000180064fb0 f i Cooking.obj
 0001:00063fd0       ?getMeshData@TriangleMeshBuilder@physx@@QEAAAEAVTriangleMeshData@Gu@2@XZ 0000000180064fd0 f i Cooking.obj
 0001:00063ff0       ?getName@?$ReflectionAllocator@VCooking@physx@@@shdfnd@physx@@CAPEBDXZ 0000000180064ff0 f i Cooking.obj
 0001:00064040       ?getName@?$ReflectionAllocator@VHeightField@Gu@physx@@@shdfnd@physx@@CAPEBDXZ 0000000180065040 f i Cooking.obj
 0001:00064090       ?getName@?$ReflectionAllocator@VInflationConvexHullLib@physx@@@shdfnd@physx@@CAPEBDXZ 0000000180065090 f i Cooking.obj
 0001:000640e0       ?getName@?$ReflectionAllocator@VQuickHullConvexHullLib@physx@@@shdfnd@physx@@CAPEBDXZ 00000001800650e0 f i Cooking.obj
 0001:00064130       ?isValid@PxHeightFieldDesc@physx@@QEBA_NXZ 0000000180065130 f i Cooking.obj
 0001:00064240       ?setBigConvexData@ConvexMesh@Gu@physx@@QEAAXPEAVBigConvexData@3@@Z 0000000180065240 f i Cooking.obj
 0001:00064260       ?setBigConvexData@ConvexMeshBuilder@physx@@QEAAXPEAVBigConvexData@2@@Z 0000000180065260 f i Cooking.obj
 0001:00064290       ?setInertia@ConvexMesh@Gu@physx@@QEAAXAEBVPxMat33@3@@Z 0000000180065290 f i Cooking.obj
 0001:000642d0       ?setMass@ConvexMesh@Gu@physx@@QEAAXM@Z 00000001800652d0 f i Cooking.obj
 0001:00064300       ?setNb@ConvexMesh@Gu@physx@@QEAAXI@Z 0000000180065300 f i Cooking.obj
 0001:00064340       ??0ReducedVertexCloud@physx@@QEAA@PEBVPxVec3@1@I@Z 0000000180065340 f   CookingUtils.obj
 0001:000643a0       ??1ReducedVertexCloud@physx@@QEAA@XZ 00000001800653a0 f   CookingUtils.obj
 0001:000643c0       ?Clean@ReducedVertexCloud@physx@@QEAAAEAV12@XZ 00000001800653c0 f   CookingUtils.obj
 0001:00064430       ?Reduce@ReducedVertexCloud@physx@@QEAA_NPEAUREDUCEDCLOUD@2@@Z 0000000180065430 f   CookingUtils.obj
 0001:00064ab0       ??$?_UM@@YAPEAX_KV?$ReflectionAllocator@M@shdfnd@physx@@PEBDH@Z 0000000180065ab0 f i CookingUtils.obj
 0001:00064b00       ??0?$ReflectionAllocator@M@shdfnd@physx@@QEAA@PEBD@Z 0000000180065b00 f i CookingUtils.obj
 0001:00064b20       ?allocate@?$ReflectionAllocator@M@shdfnd@physx@@QEAAPEAX_KPEBDH@Z 0000000180065b20 f i CookingUtils.obj
 0001:00064bc0       ?getName@?$ReflectionAllocator@M@shdfnd@physx@@CAPEBDXZ 0000000180065bc0 f i CookingUtils.obj
 0001:00064c10       ??0EdgeList@Gu@physx@@QEAA@XZ 0000000180065c10 f   EdgeList.obj
 0001:00064c60       ??1EdgeList@Gu@physx@@QEAA@XZ 0000000180065c60 f   EdgeList.obj
 0001:00064d20       ?load@EdgeList@Gu@physx@@QEAA_NAEAVPxInputStream@3@@Z 0000000180065d20 f   EdgeList.obj
 0001:00065060       ??0EdgeListBuilder@Gu@physx@@QEAA@XZ 0000000180066060 f   EdgeList.obj
 0001:00065090       ??1EdgeListBuilder@Gu@physx@@QEAA@XZ 0000000180066090 f   EdgeList.obj
 0001:000650b0       ?init@EdgeListBuilder@Gu@physx@@QEAA_NAEBUEDGELISTCREATE@23@@Z 00000001800660b0 f   EdgeList.obj
 0001:00065290       ?createFacesToEdges@EdgeListBuilder@Gu@physx@@AEAA_NIPEBIPEBG@Z 0000000180066290 f   EdgeList.obj
 0001:00065a60       ?createEdgesToFaces@EdgeListBuilder@Gu@physx@@AEAA_NIPEBIPEBG@Z 0000000180066a60 f   EdgeList.obj
 0001:00066000       ?computeActiveEdges@EdgeListBuilder@Gu@physx@@AEAA_NIPEBIPEBGPEBVPxVec3@3@M@Z 0000000180067000 f   EdgeList.obj
 0001:000686c0       ??$?_UUEdgeData@Gu@physx@@@@YAPEAX_KV?$ReflectionAllocator@UEdgeData@Gu@physx@@@shdfnd@physx@@PEBDH@Z 00000001800696c0 f i EdgeList.obj
 0001:00068710       ??$?_UUEdgeTriangleData@Gu@physx@@@@YAPEAX_KV?$ReflectionAllocator@UEdgeTriangleData@Gu@physx@@@shdfnd@physx@@PEBDH@Z 0000000180069710 f i EdgeList.obj
 0001:00068760       ??0?$ReflectionAllocator@UEdgeData@Gu@physx@@@shdfnd@physx@@QEAA@PEBD@Z 0000000180069760 f i EdgeList.obj
 0001:00068780       ??0?$ReflectionAllocator@UEdgeTriangleData@Gu@physx@@@shdfnd@physx@@QEAA@PEBD@Z 0000000180069780 f i EdgeList.obj
 0001:000687a0       ??0PxTriangle@physx@@QEAA@AEBVPxVec3@1@00@Z 00000001800697a0 f i EdgeList.obj
 0001:00068870       ??1PxTriangle@physx@@QEAA@XZ 0000000180069870 f i EdgeList.obj
 0001:00068880       ?PxAtan2@physx@@YAMMM@Z    0000000180069880 f i EdgeList.obj
 0001:000688b0       ?allocate@?$ReflectionAllocator@UEdgeData@Gu@physx@@@shdfnd@physx@@QEAAPEAX_KPEBDH@Z 00000001800698b0 f i EdgeList.obj
 0001:00068950       ?allocate@?$ReflectionAllocator@UEdgeTriangleData@Gu@physx@@@shdfnd@physx@@QEAAPEAX_KPEBDH@Z 0000000180069950 f i EdgeList.obj
 0001:000689f0       ?angle@shdfnd@physx@@YAMAEBVPxVec3@2@0@Z 00000001800699f0 f i EdgeList.obj
 0001:00068a70       ?getName@?$ReflectionAllocator@UEdgeData@Gu@physx@@@shdfnd@physx@@CAPEBDXZ 0000000180069a70 f i EdgeList.obj
 0001:00068ac0       ?getName@?$ReflectionAllocator@UEdgeTriangleData@Gu@physx@@@shdfnd@physx@@CAPEBDXZ 0000000180069ac0 f i EdgeList.obj
 0001:00068b10       ?normal@PxTriangle@physx@@QEBAXAEAVPxVec3@2@@Z 0000000180069b10 f i EdgeList.obj
 0001:00068c00       ??0MeshCleaner@physx@@QEAA@IPEBVPxVec3@1@IPEBIM@Z 0000000180069c00 f   MeshCleaner.obj
 0001:000698e0       ??1MeshCleaner@physx@@QEAA@XZ 000000018006a8e0 f   MeshCleaner.obj
 0001:00069ff0       ??9Indices@@QEBA_NAEBU0@@Z 000000018006aff0 f i MeshCleaner.obj
 0001:0006a0b0       ??9PxVec3@physx@@QEBA_NAEBV01@@Z 000000018006b0b0 f i MeshCleaner.obj
 0001:0006a130       ?PxFloor@physx@@YAMM@Z     000000018006b130 f i MeshCleaner.obj
 0001:0006a160       ?nextPowerOfTwo@shdfnd@physx@@YAII@Z 000000018006b160 f i MeshCleaner.obj
 0001:0006a1f0       ?createQuantizer@physx@@YAPEAVQuantizer@1@XZ 000000018006b1f0 f   Quantizer.obj
 0001:0006a270       ?kmeans_cluster3d@@YAIPEBVPxVec3@physx@@IIPEAV12@PEAIMM@Z 000000018006b270 f   Quantizer.obj
 0001:0006a300       ??$?2V?$ReflectionAllocator@VQuantizerImpl@@@shdfnd@physx@@@UserAllocated@shdfnd@physx@@SAPEAX_KV?$ReflectionAllocator@VQuantizerImpl@@@12@PEBDH@Z 000000018006b300 f i Quantizer.obj
 0001:0006a350       ??$kmeans_cluster@VPxVec3@physx@@M@@YAIPEBVPxVec3@physx@@IIPEAV01@PEAIMM@Z 000000018006b350 f i Quantizer.obj
 0001:0006ac90       ??0?$ReflectionAllocator@VQuantizerImpl@@@shdfnd@physx@@QEAA@PEBD@Z 000000018006bc90 f i Quantizer.obj
 0001:0006acb0       ??0Quantizer@physx@@QEAA@XZ 000000018006bcb0 f i Quantizer.obj
 0001:0006acd0       ??0QuantizerImpl@@QEAA@XZ  000000018006bcd0 f i Quantizer.obj
 0001:0006ae10       ??1Quantizer@physx@@MEAA@XZ 000000018006be10 f i Quantizer.obj
 0001:0006ae30       ??1QuantizerImpl@@EEAA@XZ  000000018006be30 f i Quantizer.obj
 0001:0006ae90       ??_GQuantizer@physx@@MEAAPEAXI@Z 000000018006be90 f i Quantizer.obj
 0001:0006ae90       ??_EQuantizer@physx@@MEAAPEAXI@Z 000000018006be90 f i Quantizer.obj
 0001:0006aee0       ??_EQuantizerImpl@@EEAAPEAXI@Z 000000018006bee0 f i Quantizer.obj
 0001:0006aee0       ??_GQuantizerImpl@@EEAAPEAXI@Z 000000018006bee0 f i Quantizer.obj
 0001:0006af50       ?allocate@?$ReflectionAllocator@VQuantizerImpl@@@shdfnd@physx@@QEAAPEAX_KPEBDH@Z 000000018006bf50 f i Quantizer.obj
 0001:0006aff0       ?clear@?$Array@VPxVec3@physx@@VNamedAllocator@shdfnd@2@@shdfnd@physx@@QEAAXXZ 000000018006bff0 f i Quantizer.obj
 0001:0006b040       ?getDenormalizeCenter@QuantizerImpl@@UEBAAEBVPxVec3@physx@@XZ 000000018006c040 f i Quantizer.obj
 0001:0006b060       ?getDenormalizeScale@QuantizerImpl@@UEBAAEBVPxVec3@physx@@XZ 000000018006c060 f i Quantizer.obj
 0001:0006b080       ?getName@?$ReflectionAllocator@VQuantizerImpl@@@shdfnd@physx@@CAPEBDXZ 000000018006c080 f i Quantizer.obj
 0001:0006b0d0       ?kmeansQuantize3D@QuantizerImpl@@UEAAPEBVPxVec3@physx@@IPEBV23@I_NIAEAI@Z 000000018006c0d0 f i Quantizer.obj
 0001:0006b4d0       ?normalizeInput@QuantizerImpl@@AEAAXIPEBVPxVec3@physx@@I@Z 000000018006c4d0 f i Quantizer.obj
 0001:0006b820       ?release@QuantizerImpl@@UEAAXXZ 000000018006c820 f i Quantizer.obj
 0001:0006b882       LoadLibraryA               000000018006c882 f   kernel32:KERNEL32.dll
 0001:0006b888       __imp_load_?PxGetAssertHandler@physx@@YAAEAVPxAssertHandler@1@XZ 000000018006c888 f   PxFoundationDEBUG_x64:PxFoundationDEBUG_x64.dll
 0001:0006b894       ?PxGetAssertHandler@physx@@YAAEAVPxAssertHandler@1@XZ 000000018006c894 f   PxFoundationDEBUG_x64:PxFoundationDEBUG_x64.dll
 0001:0006b89a       __tailMerge_PxFoundationDEBUG_x64_dll 000000018006c89a     PxFoundationDEBUG_x64:PxFoundationDEBUG_x64.dll
 0001:0006b913       __imp_load_?getAllocator@shdfnd@physx@@YAAEAVPxAllocatorCallback@2@XZ 000000018006c913 f   PxFoundationDEBUG_x64:PxFoundationDEBUG_x64.dll
 0001:0006b91f       ?getAllocator@shdfnd@physx@@YAAEAVPxAllocatorCallback@2@XZ 000000018006c91f f   PxFoundationDEBUG_x64:PxFoundationDEBUG_x64.dll
 0001:0006b925       __imp_load_??0NamedAllocator@shdfnd@physx@@QEAA@PEBD@Z 000000018006c925 f   PxFoundationDEBUG_x64:PxFoundationDEBUG_x64.dll
 0001:0006b931       ??0NamedAllocator@shdfnd@physx@@QEAA@PEBD@Z 000000018006c931 f   PxFoundationDEBUG_x64:PxFoundationDEBUG_x64.dll
 0001:0006b937       __imp_load_??0NamedAllocator@shdfnd@physx@@QEAA@AEBV012@@Z 000000018006c937 f   PxFoundationDEBUG_x64:PxFoundationDEBUG_x64.dll
 0001:0006b943       ??0NamedAllocator@shdfnd@physx@@QEAA@AEBV012@@Z 000000018006c943 f   PxFoundationDEBUG_x64:PxFoundationDEBUG_x64.dll
 0001:0006b949       __imp_load_??1NamedAllocator@shdfnd@physx@@QEAA@XZ 000000018006c949 f   PxFoundationDEBUG_x64:PxFoundationDEBUG_x64.dll
 0001:0006b955       ??1NamedAllocator@shdfnd@physx@@QEAA@XZ 000000018006c955 f   PxFoundationDEBUG_x64:PxFoundationDEBUG_x64.dll
 0001:0006b95b       __imp_load_?allocate@NamedAllocator@shdfnd@physx@@QEAAPEAX_KPEBDH@Z 000000018006c95b f   PxFoundationDEBUG_x64:PxFoundationDEBUG_x64.dll
 0001:0006b967       ?allocate@NamedAllocator@shdfnd@physx@@QEAAPEAX_KPEBDH@Z 000000018006c967 f   PxFoundationDEBUG_x64:PxFoundationDEBUG_x64.dll
 0001:0006b96d       __imp_load_?deallocate@NamedAllocator@shdfnd@physx@@QEAAXPEAX@Z 000000018006c96d f   PxFoundationDEBUG_x64:PxFoundationDEBUG_x64.dll
 0001:0006b979       ?deallocate@NamedAllocator@shdfnd@physx@@QEAAXPEAX@Z 000000018006c979 f   PxFoundationDEBUG_x64:PxFoundationDEBUG_x64.dll
 0001:0006b97f       __imp_load_?allocate@TempAllocator@shdfnd@physx@@QEAAPEAX_KPEBDH@Z 000000018006c97f f   PxFoundationDEBUG_x64:PxFoundationDEBUG_x64.dll
 0001:0006b98b       ?allocate@TempAllocator@shdfnd@physx@@QEAAPEAX_KPEBDH@Z 000000018006c98b f   PxFoundationDEBUG_x64:PxFoundationDEBUG_x64.dll
 0001:0006b991       __imp_load_?deallocate@TempAllocator@shdfnd@physx@@QEAAXPEAX@Z 000000018006c991 f   PxFoundationDEBUG_x64:PxFoundationDEBUG_x64.dll
 0001:0006b99d       ?deallocate@TempAllocator@shdfnd@physx@@QEAAXPEAX@Z 000000018006c99d f   PxFoundationDEBUG_x64:PxFoundationDEBUG_x64.dll
 0001:0006b9a3       __imp_load_PxGetFoundation 000000018006c9a3 f   PxFoundationDEBUG_x64:PxFoundationDEBUG_x64.dll
 0001:0006b9af       PxGetFoundation            000000018006c9af f   PxFoundationDEBUG_x64:PxFoundationDEBUG_x64.dll
 0001:0006b9b5       __imp_load_?getInstance@Foundation@shdfnd@physx@@SAAEAV123@XZ 000000018006c9b5 f   PxFoundationDEBUG_x64:PxFoundationDEBUG_x64.dll
 0001:0006b9c1       ?getInstance@Foundation@shdfnd@physx@@SAAEAV123@XZ 000000018006c9c1 f   PxFoundationDEBUG_x64:PxFoundationDEBUG_x64.dll
 0001:0006b9c7       __imp_load_?error@Foundation@shdfnd@physx@@QEAAXW4Enum@PxErrorCode@3@PEBDH1ZZ 000000018006c9c7 f   PxFoundationDEBUG_x64:PxFoundationDEBUG_x64.dll
 0001:0006b9d3       ?error@Foundation@shdfnd@physx@@QEAAXW4Enum@PxErrorCode@3@PEBDH1ZZ 000000018006c9d3 f   PxFoundationDEBUG_x64:PxFoundationDEBUG_x64.dll
 0001:0006b9d9       __imp_load_?PxDiagonalize@physx@@YA?AVPxVec3@1@AEBVPxMat33@1@AEAVPxQuat@1@@Z 000000018006c9d9 f   PxFoundationDEBUG_x64:PxFoundationDEBUG_x64.dll
 0001:0006b9e5       ?PxDiagonalize@physx@@YA?AVPxVec3@1@AEBVPxMat33@1@AEAVPxQuat@1@@Z 000000018006c9e5 f   PxFoundationDEBUG_x64:PxFoundationDEBUG_x64.dll
 0001:0006b9eb       __imp_load_?incRefCount@Foundation@shdfnd@physx@@SAXXZ 000000018006c9eb f   PxFoundationDEBUG_x64:PxFoundationDEBUG_x64.dll
 0001:0006b9f7       ?incRefCount@Foundation@shdfnd@physx@@SAXXZ 000000018006c9f7 f   PxFoundationDEBUG_x64:PxFoundationDEBUG_x64.dll
 0001:0006b9fd       __imp_load_?decRefCount@Foundation@shdfnd@physx@@SAXXZ 000000018006c9fd f   PxFoundationDEBUG_x64:PxFoundationDEBUG_x64.dll
 0001:0006ba09       ?decRefCount@Foundation@shdfnd@physx@@SAXXZ 000000018006ca09 f   PxFoundationDEBUG_x64:PxFoundationDEBUG_x64.dll
 0001:0006ba0f       __imp_load_??0FPUGuard@shdfnd@physx@@QEAA@XZ 000000018006ca0f f   PxFoundationDEBUG_x64:PxFoundationDEBUG_x64.dll
 0001:0006ba1b       ??0FPUGuard@shdfnd@physx@@QEAA@XZ 000000018006ca1b f   PxFoundationDEBUG_x64:PxFoundationDEBUG_x64.dll
 0001:0006ba21       __imp_load_??1FPUGuard@shdfnd@physx@@QEAA@XZ 000000018006ca21 f   PxFoundationDEBUG_x64:PxFoundationDEBUG_x64.dll
 0001:0006ba2d       ??1FPUGuard@shdfnd@physx@@QEAA@XZ 000000018006ca2d f   PxFoundationDEBUG_x64:PxFoundationDEBUG_x64.dll
 0001:0006ba33       __imp_load_?writeWord@physx@@YAXG_NAEAVPxOutputStream@1@@Z 000000018006ca33 f   PhysX3CommonDEBUG_x64:PhysX3CommonDEBUG_x64.dll
 0001:0006ba3f       ?writeWord@physx@@YAXG_NAEAVPxOutputStream@1@@Z 000000018006ca3f f   PhysX3CommonDEBUG_x64:PhysX3CommonDEBUG_x64.dll
 0001:0006ba45       __tailMerge_PhysX3CommonDEBUG_x64_dll 000000018006ca45     PhysX3CommonDEBUG_x64:PhysX3CommonDEBUG_x64.dll
 0001:0006babe       __imp_load_?writeDword@physx@@YAXI_NAEAVPxOutputStream@1@@Z 000000018006cabe f   PhysX3CommonDEBUG_x64:PhysX3CommonDEBUG_x64.dll
 0001:0006baca       ?writeDword@physx@@YAXI_NAEAVPxOutputStream@1@@Z 000000018006caca f   PhysX3CommonDEBUG_x64:PhysX3CommonDEBUG_x64.dll
 0001:0006bad0       __imp_load_?writeFloat@physx@@YAXM_NAEAVPxOutputStream@1@@Z 000000018006cad0 f   PhysX3CommonDEBUG_x64:PhysX3CommonDEBUG_x64.dll
 0001:0006badc       ?writeFloat@physx@@YAXM_NAEAVPxOutputStream@1@@Z 000000018006cadc f   PhysX3CommonDEBUG_x64:PhysX3CommonDEBUG_x64.dll
 0001:0006bae2       __imp_load_?writeHeader@physx@@YA_NCCCCI_NAEAVPxOutputStream@1@@Z 000000018006cae2 f   PhysX3CommonDEBUG_x64:PhysX3CommonDEBUG_x64.dll
 0001:0006baee       ?writeHeader@physx@@YA_NCCCCI_NAEAVPxOutputStream@1@@Z 000000018006caee f   PhysX3CommonDEBUG_x64:PhysX3CommonDEBUG_x64.dll
 0001:0006baf4       __imp_load_?validate@RTree@Gu@physx@@QEAAXPEAUCallbackRefit@123@@Z 000000018006caf4 f   PhysX3CommonDEBUG_x64:PhysX3CommonDEBUG_x64.dll
 0001:0006bb00       ?validate@RTree@Gu@physx@@QEAAXPEAUCallbackRefit@123@@Z 000000018006cb00 f   PhysX3CommonDEBUG_x64:PhysX3CommonDEBUG_x64.dll
 0001:0006bb06       __imp_load_??0SourceMesh@Gu@physx@@QEAA@XZ 000000018006cb06 f   PhysX3CommonDEBUG_x64:PhysX3CommonDEBUG_x64.dll
 0001:0006bb12       ??0SourceMesh@Gu@physx@@QEAA@XZ 000000018006cb12 f   PhysX3CommonDEBUG_x64:PhysX3CommonDEBUG_x64.dll
 0001:0006bb18       __imp_load_??1SourceMesh@Gu@physx@@QEAA@XZ 000000018006cb18 f   PhysX3CommonDEBUG_x64:PhysX3CommonDEBUG_x64.dll
 0001:0006bb24       ??1SourceMesh@Gu@physx@@QEAA@XZ 000000018006cb24 f   PhysX3CommonDEBUG_x64:PhysX3CommonDEBUG_x64.dll
 0001:0006bb2a       __imp_load_??0BV4Tree@Gu@physx@@QEAA@XZ 000000018006cb2a f   PhysX3CommonDEBUG_x64:PhysX3CommonDEBUG_x64.dll
 0001:0006bb36       ??0BV4Tree@Gu@physx@@QEAA@XZ 000000018006cb36 f   PhysX3CommonDEBUG_x64:PhysX3CommonDEBUG_x64.dll
 0001:0006bb3c       __imp_load_??1BV4Tree@Gu@physx@@QEAA@XZ 000000018006cb3c f   PhysX3CommonDEBUG_x64:PhysX3CommonDEBUG_x64.dll
 0001:0006bb48       ??1BV4Tree@Gu@physx@@QEAA@XZ 000000018006cb48 f   PhysX3CommonDEBUG_x64:PhysX3CommonDEBUG_x64.dll
 0001:0006bb4e       __imp_load_??0BV32Tree@Gu@physx@@QEAA@XZ 000000018006cb4e f   PhysX3CommonDEBUG_x64:PhysX3CommonDEBUG_x64.dll
 0001:0006bb5a       ??0BV32Tree@Gu@physx@@QEAA@XZ 000000018006cb5a f   PhysX3CommonDEBUG_x64:PhysX3CommonDEBUG_x64.dll
 0001:0006bb60       __imp_load_??1BV32Tree@Gu@physx@@QEAA@XZ 000000018006cb60 f   PhysX3CommonDEBUG_x64:PhysX3CommonDEBUG_x64.dll
 0001:0006bb6c       ??1BV32Tree@Gu@physx@@QEAA@XZ 000000018006cb6c f   PhysX3CommonDEBUG_x64:PhysX3CommonDEBUG_x64.dll
 0001:0006bb72       __imp_load_?writeFloatBuffer@physx@@YAXPEBMI_NAEAVPxOutputStream@1@@Z 000000018006cb72 f   PhysX3CommonDEBUG_x64:PhysX3CommonDEBUG_x64.dll
 0001:0006bb7e       ?writeFloatBuffer@physx@@YAXPEBMI_NAEAVPxOutputStream@1@@Z 000000018006cb7e f   PhysX3CommonDEBUG_x64:PhysX3CommonDEBUG_x64.dll
 0001:0006bb84       __imp_load_?writeWordBuffer@physx@@YAXPEBGI_NAEAVPxOutputStream@1@@Z 000000018006cb84 f   PhysX3CommonDEBUG_x64:PhysX3CommonDEBUG_x64.dll
 0001:0006bb90       ?writeWordBuffer@physx@@YAXPEBGI_NAEAVPxOutputStream@1@@Z 000000018006cb90 f   PhysX3CommonDEBUG_x64:PhysX3CommonDEBUG_x64.dll
 0001:0006bb96       __imp_load_?computeMaxIndex@physx@@YAIPEBII@Z 000000018006cb96 f   PhysX3CommonDEBUG_x64:PhysX3CommonDEBUG_x64.dll
 0001:0006bba2       ?computeMaxIndex@physx@@YAIPEBII@Z 000000018006cba2 f   PhysX3CommonDEBUG_x64:PhysX3CommonDEBUG_x64.dll
 0001:0006bba8       __imp_load_?storeIndices@physx@@YAXIIPEBIAEAVPxOutputStream@1@_N@Z 000000018006cba8 f   PhysX3CommonDEBUG_x64:PhysX3CommonDEBUG_x64.dll
 0001:0006bbb4       ?storeIndices@physx@@YAXIIPEBIAEAVPxOutputStream@1@_N@Z 000000018006cbb4 f   PhysX3CommonDEBUG_x64:PhysX3CommonDEBUG_x64.dll
 0001:0006bbba       __imp_load_?computeBoundsAroundVertices@Gu@physx@@YAXAEAVPxBounds3@2@IPEIBVPxVec3@2@@Z 000000018006cbba f   PhysX3CommonDEBUG_x64:PhysX3CommonDEBUG_x64.dll
 0001:0006bbc6       ?computeBoundsAroundVertices@Gu@physx@@YAXAEAVPxBounds3@2@IPEIBVPxVec3@2@@Z 000000018006cbc6 f   PhysX3CommonDEBUG_x64:PhysX3CommonDEBUG_x64.dll
 0001:0006bbcc       __imp_load_?BuildBV4Ex@Gu@physx@@YA_NAEAVBV4Tree@12@AEAVSourceMesh@12@MI@Z 000000018006cbcc f   PhysX3CommonDEBUG_x64:PhysX3CommonDEBUG_x64.dll
 0001:0006bbd8       ?BuildBV4Ex@Gu@physx@@YA_NAEAVBV4Tree@12@AEAVSourceMesh@12@MI@Z 000000018006cbd8 f   PhysX3CommonDEBUG_x64:PhysX3CommonDEBUG_x64.dll
 0001:0006bbde       __imp_load_?BuildBV32Ex@Gu@physx@@YA_NAEAVBV32Tree@12@AEAVSourceMesh@12@MI@Z 000000018006cbde f   PhysX3CommonDEBUG_x64:PhysX3CommonDEBUG_x64.dll
 0001:0006bbea       ?BuildBV32Ex@Gu@physx@@YA_NAEAVBV32Tree@12@AEAVSourceMesh@12@MI@Z 000000018006cbea f   PhysX3CommonDEBUG_x64:PhysX3CommonDEBUG_x64.dll
 0001:0006bbf0       __imp_load_?computeMaxIndex@physx@@YAGPEBGI@Z 000000018006cbf0 f   PhysX3CommonDEBUG_x64:PhysX3CommonDEBUG_x64.dll
 0001:0006bbfc       ?computeMaxIndex@physx@@YAGPEBGI@Z 000000018006cbfc f   PhysX3CommonDEBUG_x64:PhysX3CommonDEBUG_x64.dll
 0001:0006bc02       __imp_load_?WriteHeader@Gu@physx@@YA_NEEEEI_NAEAVPxOutputStream@2@@Z 000000018006cc02 f   PhysX3CommonDEBUG_x64:PhysX3CommonDEBUG_x64.dll
 0001:0006bc0e       ?WriteHeader@Gu@physx@@YA_NEEEEI_NAEAVPxOutputStream@2@@Z 000000018006cc0e f   PhysX3CommonDEBUG_x64:PhysX3CommonDEBUG_x64.dll
 0001:0006bc14       __imp_load_?StoreIndices@Gu@physx@@YAXGIPEBGAEAVPxOutputStream@2@_N@Z 000000018006cc14 f   PhysX3CommonDEBUG_x64:PhysX3CommonDEBUG_x64.dll
 0001:0006bc20       ?StoreIndices@Gu@physx@@YAXGIPEBGAEAVPxOutputStream@2@_N@Z 000000018006cc20 f   PhysX3CommonDEBUG_x64:PhysX3CommonDEBUG_x64.dll
 0001:0006bc26       __imp_load_?CreateOffsets@BigConvexData@physx@@IEAAXXZ 000000018006cc26 f   PhysX3CommonDEBUG_x64:PhysX3CommonDEBUG_x64.dll
 0001:0006bc32       ?CreateOffsets@BigConvexData@physx@@IEAAXXZ 000000018006cc32 f   PhysX3CommonDEBUG_x64:PhysX3CommonDEBUG_x64.dll
 0001:0006bc38       __imp_load_?GetRanks@RadixSort@Cm@physx@@QEBAPEBIXZ 000000018006cc38 f   PhysX3CommonDEBUG_x64:PhysX3CommonDEBUG_x64.dll
 0001:0006bc44       ?GetRanks@RadixSort@Cm@physx@@QEBAPEBIXZ 000000018006cc44 f   PhysX3CommonDEBUG_x64:PhysX3CommonDEBUG_x64.dll
 0001:0006bc4a       __imp_load_??0RadixSortBuffered@Cm@physx@@QEAA@XZ 000000018006cc4a f   PhysX3CommonDEBUG_x64:PhysX3CommonDEBUG_x64.dll
 0001:0006bc56       ??0RadixSortBuffered@Cm@physx@@QEAA@XZ 000000018006cc56 f   PhysX3CommonDEBUG_x64:PhysX3CommonDEBUG_x64.dll
 0001:0006bc5c       __imp_load_??1RadixSortBuffered@Cm@physx@@UEAA@XZ 000000018006cc5c f   PhysX3CommonDEBUG_x64:PhysX3CommonDEBUG_x64.dll
 0001:0006bc68       ??1RadixSortBuffered@Cm@physx@@UEAA@XZ 000000018006cc68 f   PhysX3CommonDEBUG_x64:PhysX3CommonDEBUG_x64.dll
 0001:0006bc6e       __imp_load_?Sort@RadixSortBuffered@Cm@physx@@QEAAAEAV123@PEBIIW4RadixHint@23@@Z 000000018006cc6e f   PhysX3CommonDEBUG_x64:PhysX3CommonDEBUG_x64.dll
 0001:0006bc7a       ?Sort@RadixSortBuffered@Cm@physx@@QEAAAEAV123@PEBIIW4RadixHint@23@@Z 000000018006cc7a f   PhysX3CommonDEBUG_x64:PhysX3CommonDEBUG_x64.dll
 0001:0006bc80       __imp_load_?computeOBBPoints@Gu@physx@@YAXPEIAVPxVec3@2@AEBV32@1111@Z 000000018006cc80 f   PhysX3CommonDEBUG_x64:PhysX3CommonDEBUG_x64.dll
 0001:0006bc8c       ?computeOBBPoints@Gu@physx@@YAXPEIAVPxVec3@2@AEBV32@1111@Z 000000018006cc8c f   PhysX3CommonDEBUG_x64:PhysX3CommonDEBUG_x64.dll
 0001:0006bc92       __imp_load_??0BigConvexData@physx@@QEAA@XZ 000000018006cc92 f   PhysX3CommonDEBUG_x64:PhysX3CommonDEBUG_x64.dll
 0001:0006bc9e       ??0BigConvexData@physx@@QEAA@XZ 000000018006cc9e f   PhysX3CommonDEBUG_x64:PhysX3CommonDEBUG_x64.dll
 0001:0006bca4       __imp_load_??1BigConvexData@physx@@QEAA@XZ 000000018006cca4 f   PhysX3CommonDEBUG_x64:PhysX3CommonDEBUG_x64.dll
 0001:0006bcb0       ??1BigConvexData@physx@@QEAA@XZ 000000018006ccb0 f   PhysX3CommonDEBUG_x64:PhysX3CommonDEBUG_x64.dll
 0001:0006bcb6       __imp_load_?readDword@physx@@YAI_NAEAVPxInputStream@1@@Z 000000018006ccb6 f   PhysX3CommonDEBUG_x64:PhysX3CommonDEBUG_x64.dll
 0001:0006bcc2       ?readDword@physx@@YAI_NAEAVPxInputStream@1@@Z 000000018006ccc2 f   PhysX3CommonDEBUG_x64:PhysX3CommonDEBUG_x64.dll
 0001:0006bcc8       __imp_load_?ReadHeader@Gu@physx@@YA_NEEEEAEAIAEA_NAEAVPxInputStream@2@@Z 000000018006ccc8 f   PhysX3CommonDEBUG_x64:PhysX3CommonDEBUG_x64.dll
 0001:0006bcd4       ?ReadHeader@Gu@physx@@YA_NEEEEAEAIAEA_NAEAVPxInputStream@2@@Z 000000018006ccd4 f   PhysX3CommonDEBUG_x64:PhysX3CommonDEBUG_x64.dll
 0001:0006bcda       __imp_load_??0HeightField@Gu@physx@@QEAA@PEAVGuMeshFactory@2@@Z 000000018006ccda f   PhysX3CommonDEBUG_x64:PhysX3CommonDEBUG_x64.dll
 0001:0006bce6       ??0HeightField@Gu@physx@@QEAA@PEAVGuMeshFactory@2@@Z 000000018006cce6 f   PhysX3CommonDEBUG_x64:PhysX3CommonDEBUG_x64.dll
 0001:0006bcec       __imp_load_?loadFromDesc@HeightField@Gu@physx@@QEAA_NAEBVPxHeightFieldDesc@3@@Z 000000018006ccec f   PhysX3CommonDEBUG_x64:PhysX3CommonDEBUG_x64.dll
 0001:0006bcf8       ?loadFromDesc@HeightField@Gu@physx@@QEAA_NAEBVPxHeightFieldDesc@3@@Z 000000018006ccf8 f   PhysX3CommonDEBUG_x64:PhysX3CommonDEBUG_x64.dll
 0001:0006bcfe       __imp_load_?releaseMemory@HeightField@Gu@physx@@QEAAXXZ 000000018006ccfe f   PhysX3CommonDEBUG_x64:PhysX3CommonDEBUG_x64.dll
 0001:0006bd0a       ?releaseMemory@HeightField@Gu@physx@@QEAAXXZ 000000018006cd0a f   PhysX3CommonDEBUG_x64:PhysX3CommonDEBUG_x64.dll
 0001:0006bd10       __imp_load_??1HeightField@Gu@physx@@UEAA@XZ 000000018006cd10 f   PhysX3CommonDEBUG_x64:PhysX3CommonDEBUG_x64.dll
 0001:0006bd1c       ??1HeightField@Gu@physx@@UEAA@XZ 000000018006cd1c f   PhysX3CommonDEBUG_x64:PhysX3CommonDEBUG_x64.dll
 0001:0006bd24       ??$PFromRva@PEAP6A_JXZ@@YAPEAP6A_JXZK@Z 000000018006cd24 f i delayimp:delayhlp.obj
 0001:0006bd34       ??$PFromRva@PEAPEAUHINSTANCE__@@@@YAPEAPEAUHINSTANCE__@@K@Z 000000018006cd34 f i delayimp:delayhlp.obj
 0001:0006bd44       ??$PFromRva@PEAU_IMAGE_IMPORT_BY_NAME@@@@YAPEAU_IMAGE_IMPORT_BY_NAME@@K@Z 000000018006cd44 f i delayimp:delayhlp.obj
 0001:0006bd54       ??$PFromRva@PEAU_IMAGE_THUNK_DATA64@@@@YAPEAU_IMAGE_THUNK_DATA64@@K@Z 000000018006cd54 f i delayimp:delayhlp.obj
 0001:0006bd64       ??$PFromRva@PEBD@@YAPEBDK@Z 000000018006cd64 f i delayimp:delayhlp.obj
 0001:0006bd74       ??$PFromRva@PEBUImgDelayDescr@@@@YAPEBUImgDelayDescr@@K@Z 000000018006cd74 f i delayimp:delayhlp.obj
 0001:0006bd84       ??$PFromRva@PEBU_IMAGE_THUNK_DATA64@@@@YAPEBU_IMAGE_THUNK_DATA64@@K@Z 000000018006cd84 f i delayimp:delayhlp.obj
 0001:0006bd94       ?CountOfImports@@YAIPEBU_IMAGE_THUNK_DATA64@@@Z 000000018006cd94 f i delayimp:delayhlp.obj
 0001:0006bdb0       ?DloadAcquireSectionWriteAccess@@YAXXZ 000000018006cdb0 f i delayimp:delayhlp.obj
 0001:0006be98       ?DloadGetSRWLockFunctionPointers@@YAEXZ 000000018006ce98 f i delayimp:delayhlp.obj
 0001:0006bf5c       ?DloadLock@@YAXXZ          000000018006cf5c f i delayimp:delayhlp.obj
 0001:0006bfc4       ?DloadMakePermanentImageCommit@@YAXPEAX_K@Z 000000018006cfc4 f i delayimp:delayhlp.obj
 0001:0006c080       ?DloadObtainSection@@YAPEAXPEAK0@Z 000000018006d080 f i delayimp:delayhlp.obj
 0001:0006c138       ?DloadProtectSection@@YAXKPEAK@Z 000000018006d138 f i delayimp:delayhlp.obj
 0001:0006c1ec       ?DloadReleaseSectionWriteAccess@@YAXXZ 000000018006d1ec f i delayimp:delayhlp.obj
 0001:0006c2bc       ?DloadUnlock@@YAXXZ        000000018006d2bc f i delayimp:delayhlp.obj
 0001:0006c31c       ?IndexFromPImgThunkData@@YAIPEBU_IMAGE_THUNK_DATA64@@0@Z 000000018006d31c f i delayimp:delayhlp.obj
 0001:0006c4b0       HRESULT_FROM_WIN32         000000018006d4b0 f i delayimp:delayhlp.obj
 0001:0006c4c4       ReadAcquire64              000000018006d4c4 f i delayimp:delayhlp.obj
 0001:0006c4c8       ReadPointerAcquire         000000018006d4c8 f i delayimp:delayhlp.obj
 0001:0006c4cc       WritePointerRelease        000000018006d4cc f i delayimp:delayhlp.obj
 0001:0006c4d0       WriteRelease64             000000018006d4d0 f i delayimp:delayhlp.obj
 0001:0006c4d4       __FUnloadDelayLoadedDLL2   000000018006d4d4 f   delayimp:delayhlp.obj
 0001:0006c5bc       __HrLoadAllImportsForDll   000000018006d5bc f   delayimp:delayhlp.obj
 0001:0006c64c       __delayLoadHelper2         000000018006d64c f   delayimp:delayhlp.obj
 0001:0006ca10       _CRT_RTC_INIT              000000018006da10 f   MSVCRTD:_init_.obj
 0001:0006ca20       _CRT_RTC_INITW             000000018006da20 f   MSVCRTD:_init_.obj
 0001:0006ca30       _RTC_InitBase              000000018006da30 f   MSVCRTD:_init_.obj
 0001:0006ca80       _RTC_Shutdown              000000018006da80 f   MSVCRTD:_init_.obj
 0001:0006cab0       ??_U@YAPEAX_K@Z            000000018006dab0 f   MSVCRTD:new_array.obj
 0001:0006cad0       ??_V@YAXPEAX@Z             000000018006dad0 f   MSVCRTD:delete_array.obj
 0001:0006cb00       _alloca_probe              000000018006db00 f   MSVCRTD:_chkstk_.obj
 0001:0006cb00       __chkstk                   000000018006db00 f   MSVCRTD:_chkstk_.obj
 0001:0006cb70       ??3@YAXPEAX_K@Z            000000018006db70 f   MSVCRTD:delete_scalar_size.obj
 0001:0006cba0       ?__scrt_initialize_type_info@@YAXXZ 000000018006dba0 f   MSVCRTD:tncleanup.obj
 0001:0006cbc0       ?__scrt_uninitialize_type_info@@YAXXZ 000000018006dbc0 f   MSVCRTD:tncleanup.obj
 0001:0006cbe0       ??1type_info@@UEAA@XZ      000000018006dbe0 f   MSVCRTD:std_type_info_static.obj
 0001:0006cc00       ??_Gtype_info@@UEAAPEAXI@Z 000000018006dc00 f i MSVCRTD:std_type_info_static.obj
 0001:0006cc00       ??_Etype_info@@UEAAPEAXI@Z 000000018006dc00 f i MSVCRTD:std_type_info_static.obj
 0001:0006d130       _CRT_INIT                  000000018006e130 f   MSVCRTD:dll_dllmain.obj
 0001:0006d170       _DllMainCRTStartup         000000018006e170 f   MSVCRTD:dll_dllmain.obj
 0001:0006d1c0       _guard_check_icall_nop     000000018006e1c0 f i MSVCRTD:guard_support.obj
 0001:0006d1d0       ReadNoFence64              000000018006e1d0 f i MSVCRTD:guard_support.obj
 0001:0006d200       ReadPointerNoFence         000000018006e200 f i MSVCRTD:guard_support.obj
 0001:0006d220       __guard_ss_common_verify_stub 000000018006e220 f i MSVCRTD:guard_support.obj
 0001:0006d230       _guard_icall_checks_enforced 000000018006e230 f i MSVCRTD:guard_support.obj
 0001:0006d280       _guard_rf_checks_enforced  000000018006e280 f i MSVCRTD:guard_support.obj
 0001:0006d2d0       ?_RTC_GetErrorFunc@@YAP6AHHPEBDH00ZZPEBX@Z 000000018006e2d0 f   MSVCRTD:_userapi_.obj
 0001:0006d2e0       ?_RTC_GetErrorFuncW@@YAP6AHHPEB_WH00ZZPEBX@Z 000000018006e2e0 f   MSVCRTD:_userapi_.obj
 0001:0006d2f0       _RTC_GetErrDesc            000000018006e2f0 f   MSVCRTD:_userapi_.obj
 0001:0006d310       _RTC_NumErrors             000000018006e310 f   MSVCRTD:_userapi_.obj
 0001:0006d320       _RTC_SetErrorFunc          000000018006e320 f   MSVCRTD:_userapi_.obj
 0001:0006d340       _RTC_SetErrorFuncW         000000018006e340 f   MSVCRTD:_userapi_.obj
 0001:0006d360       _RTC_SetErrorType          000000018006e360 f   MSVCRTD:_userapi_.obj
 0001:0006d390       ??2@YAPEAX_K@Z             000000018006e390 f   MSVCRTD:new_scalar.obj
 0001:0006d400       ??3@YAXPEAX@Z              000000018006e400 f   MSVCRTD:delete_scalar.obj
 0001:0006d510       __security_init_cookie     000000018006e510 f   MSVCRTD:gs_support.obj
 0001:0006d5b0       DllMain                    000000018006e5b0 f   MSVCRTD:dll_dllmain_stub.obj
 0001:0006d600       __local_stdio_printf_options 000000018006e600 f i MSVCRTD:default_local_stdio_options.obj
 0001:0006d610       __local_stdio_scanf_options 000000018006e610 f i MSVCRTD:default_local_stdio_options.obj
 0001:0006d620       __scrt_initialize_default_local_stdio_options 000000018006e620 f   MSVCRTD:default_local_stdio_options.obj
 0001:0006d680       ??$__crt_fast_decode_pointer@PEAP6AXXZ@@YAPEAP6AXXZQEAP6AXXZ@Z 000000018006e680 f i MSVCRTD:utility.obj
 0001:0006d6d0       ??$__crt_fast_encode_pointer@PEAP6AXXZ@@YAPEAP6AXXZQEAP6AXXZ@Z 000000018006e6d0 f i MSVCRTD:utility.obj
 0001:0006d720       ?__crt_rotate_pointer_value@@YA_K_KH@Z 000000018006e720 f i MSVCRTD:utility.obj
 0001:0006d740       ?configure_argv@__scrt_narrow_argv_policy@@SAHXZ 000000018006e740 f i MSVCRTD:utility.obj
 0001:0006d860       ?initialize_environment@__scrt_narrow_environment_policy@@SAHXZ 000000018006e860 f i MSVCRTD:utility.obj
 0001:0006d930       NtCurrentTeb               000000018006e930 f i MSVCRTD:utility.obj
 0001:0006d940       __scrt_acquire_startup_lock 000000018006e940 f   MSVCRTD:utility.obj
 0001:0006d9c0       __scrt_dllmain_after_initialize_c 000000018006e9c0 f   MSVCRTD:utility.obj
 0001:0006da00       __scrt_dllmain_before_initialize_c 000000018006ea00 f   MSVCRTD:utility.obj
 0001:0006da30       __scrt_dllmain_crt_thread_attach 000000018006ea30 f   MSVCRTD:utility.obj
 0001:0006da70       __scrt_dllmain_crt_thread_detach 000000018006ea70 f   MSVCRTD:utility.obj
 0001:0006da90       __scrt_dllmain_exception_filter 000000018006ea90 f   MSVCRTD:utility.obj
 0001:0006db10       __scrt_dllmain_uninitialize_c 000000018006eb10 f   MSVCRTD:utility.obj
 0001:0006db50       __scrt_dllmain_uninitialize_critical 000000018006eb50 f   MSVCRTD:utility.obj
 0001:0006db70       __scrt_initialize_crt      000000018006eb70 f   MSVCRTD:utility.obj
 0001:0006dbd0       __scrt_initialize_onexit_tables 000000018006ebd0 f   MSVCRTD:utility.obj
 0001:0006dd20       __scrt_is_nonwritable_in_current_image 000000018006ed20 f   MSVCRTD:utility.obj
 0001:0006ddd0       __scrt_release_startup_lock 000000018006edd0 f   MSVCRTD:utility.obj
 0001:0006de10       __scrt_uninitialize_crt    000000018006ee10 f   MSVCRTD:utility.obj
 0001:0006de60       _onexit                    000000018006ee60 f   MSVCRTD:utility.obj
 0001:0006df10       at_quick_exit              000000018006ef10 f   MSVCRTD:utility.obj
 0001:0006df80       atexit                     000000018006ef80 f   MSVCRTD:utility.obj
 0001:0006dfc0       __scrt_get_dyn_tls_init_callback 000000018006efc0 f   MSVCRTD:dyn_tls_init.obj
 0001:0006dfd0       __crt_debugger_hook        000000018006efd0 f   MSVCRTD:utility_desktop.obj
 0001:0006dff0       __scrt_fastfail            000000018006eff0 f   MSVCRTD:utility_desktop.obj
 0001:0006e1f0       __scrt_get_show_window_mode 000000018006f1f0 f   MSVCRTD:utility_desktop.obj
 0001:0006e260       __scrt_initialize_winrt    000000018006f260 f   MSVCRTD:utility_desktop.obj
 0001:0006e270       __scrt_is_managed_app      000000018006f270 f   MSVCRTD:utility_desktop.obj
 0001:0006e340       __scrt_set_unhandled_exception_filter 000000018006f340 f   MSVCRTD:utility_desktop.obj
 0001:0006e360       __scrt_unhandled_exception_filter 000000018006f360 f   MSVCRTD:utility_desktop.obj
 0001:0006e3f0       _RTC_Initialize            000000018006f3f0 f   MSVCRTD:_initsect_.obj
 0001:0006e450       _RTC_Terminate             000000018006f450 f   MSVCRTD:_initsect_.obj
 0001:0006e4b0       _guard_check_icall         000000018006f4b0 f i MSVCRTD:checkcfg.obj
 0001:0006e4d0       ??$__vcrt_va_start_verify_argument_type@QEBD@@YAXXZ 000000018006f4d0 f i MSVCRTD:_error_.obj
 0001:0006e5b0       ?_RTC_AllocaFailure@@YAXPEAXPEAU_RTC_ALLOCA_NODE@@H@Z 000000018006f5b0 f   MSVCRTD:_error_.obj
 0001:0006e760       ?_RTC_Failure@@YAXPEAXH@Z  000000018006f760 f   MSVCRTD:_error_.obj
 0001:0006e7d0       ?_RTC_StackFailure@@YAXPEAXPEBD@Z 000000018006f7d0 f   MSVCRTD:_error_.obj
 0001:0006ecf0       _RTC_UninitUse             000000018006fcf0 f   MSVCRTD:_error_.obj
 0001:0006edf0       _vsprintf_s_l              000000018006fdf0 f i MSVCRTD:_error_.obj
 0001:0006ee70       sprintf_s                  000000018006fe70 f i MSVCRTD:_error_.obj
 0001:0006eec0       ??0bad_alloc@std@@AEAA@QEBD@Z 000000018006fec0 f i MSVCRTD:throw_bad_alloc.obj
 0001:0006ef10       ??0bad_alloc@std@@QEAA@AEBV01@@Z 000000018006ff10 f i MSVCRTD:throw_bad_alloc.obj
 0001:0006ef60       ??0bad_alloc@std@@QEAA@XZ  000000018006ff60 f i MSVCRTD:throw_bad_alloc.obj
 0001:0006efb0       ??0bad_array_new_length@std@@QEAA@AEBV01@@Z 000000018006ffb0 f i MSVCRTD:throw_bad_alloc.obj
 0001:0006f000       ??0bad_array_new_length@std@@QEAA@XZ 0000000180070000 f i MSVCRTD:throw_bad_alloc.obj
 0001:0006f040       ??0exception@std@@QEAA@AEBV01@@Z 0000000180070040 f i MSVCRTD:throw_bad_alloc.obj
 0001:0006f0b0       ??0exception@std@@QEAA@QEBDH@Z 00000001800700b0 f i MSVCRTD:throw_bad_alloc.obj
 0001:0006f110       ??1bad_alloc@std@@UEAA@XZ  0000000180070110 f i MSVCRTD:throw_bad_alloc.obj
 0001:0006f130       ??1bad_array_new_length@std@@UEAA@XZ 0000000180070130 f i MSVCRTD:throw_bad_alloc.obj
 0001:0006f150       ??1exception@std@@UEAA@XZ  0000000180070150 f i MSVCRTD:throw_bad_alloc.obj
 0001:0006f190       ??_Gbad_alloc@std@@UEAAPEAXI@Z 0000000180070190 f i MSVCRTD:throw_bad_alloc.obj
 0001:0006f190       ??_Ebad_alloc@std@@UEAAPEAXI@Z 0000000180070190 f i MSVCRTD:throw_bad_alloc.obj
 0001:0006f1e0       ??_Ebad_array_new_length@std@@UEAAPEAXI@Z 00000001800701e0 f i MSVCRTD:throw_bad_alloc.obj
 0001:0006f1e0       ??_Gbad_array_new_length@std@@UEAAPEAXI@Z 00000001800701e0 f i MSVCRTD:throw_bad_alloc.obj
 0001:0006f230       ??_Gexception@std@@UEAAPEAXI@Z 0000000180070230 f i MSVCRTD:throw_bad_alloc.obj
 0001:0006f230       ??_Eexception@std@@UEAAPEAXI@Z 0000000180070230 f i MSVCRTD:throw_bad_alloc.obj
 0001:0006f280       ?__scrt_throw_std_bad_alloc@@YAXXZ 0000000180070280 f   MSVCRTD:throw_bad_alloc.obj
 0001:0006f2b0       ?__scrt_throw_std_bad_array_new_length@@YAXXZ 00000001800702b0 f   MSVCRTD:throw_bad_alloc.obj
 0001:0006f2e0       ?what@exception@std@@UEBAPEBDXZ 00000001800702e0 f i MSVCRTD:throw_bad_alloc.obj
 0001:0006f330       __isa_available_init       0000000180070330 f   MSVCRTD:_cpu_disp_.obj
 0001:0006f780       _get_startup_argv_mode     0000000180070780 f   MSVCRTD:argv_mode.obj
 0001:0006f790       __scrt_is_ucrt_dll_in_use  0000000180070790 f   MSVCRTD:ucrt_detection.obj
 0001:0006fde0       ?_RTC_GetSrcLine@@YAHPEAEPEA_WKPEAH1K@Z 0000000180070de0 f   MSVCRTD:_pdblkup_.obj
 0001:00070370       __GSHandlerCheck           0000000180071370 f   MSVCRTD:_gshandler_.obj
 0001:000703c0       __GSHandlerCheckCommon     00000001800713c0 f   MSVCRTD:_gshandler_.obj
 0001:00070510       __security_check_cookie    0000000180071510 f   MSVCRTD:_amdsecgs_.obj
 0001:00070540       __raise_securityfailure    0000000180071540 f   MSVCRTD:gs_report.obj
 0001:00070590       __report_gsfailure         0000000180071590 f   MSVCRTD:gs_report.obj
 0001:000706a0       __report_rangecheckfailure 00000001800716a0 f   MSVCRTD:gs_report.obj
 0001:000706c0       __report_securityfailure   00000001800716c0 f   MSVCRTD:gs_report.obj
 0001:00070790       __report_securityfailureEx 0000000180071790 f   MSVCRTD:gs_report.obj
 0001:00070a8e       strstr                     0000000180071a8e f   vcruntimed:VCRUNTIME140D.dll
 0001:00070a94       memcpy                     0000000180071a94 f   vcruntimed:VCRUNTIME140D.dll
 0001:00070a9a       memset                     0000000180071a9a f   vcruntimed:VCRUNTIME140D.dll
 0001:00070aa0       memcmp                     0000000180071aa0 f   vcruntimed:VCRUNTIME140D.dll
 0001:00070aa6       _purecall                  0000000180071aa6 f   vcruntimed:VCRUNTIME140D.dll
 0001:00070aac       __std_type_info_name       0000000180071aac f   vcruntimed:VCRUNTIME140D.dll
 0001:00070ab2       memmove                    0000000180071ab2 f   vcruntimed:VCRUNTIME140D.dll
 0001:00070ab8       __std_type_info_destroy_list 0000000180071ab8 f   vcruntimed:VCRUNTIME140D.dll
 0001:00070abe       __C_specific_handler       0000000180071abe f   vcruntimed:VCRUNTIME140D.dll
 0001:00070ac4       __std_exception_copy       0000000180071ac4 f   vcruntimed:VCRUNTIME140D.dll
 0001:00070aca       __std_exception_destroy    0000000180071aca f   vcruntimed:VCRUNTIME140D.dll
 0001:00070ad0       _CxxThrowException         0000000180071ad0 f   vcruntimed:VCRUNTIME140D.dll
 0001:00070ad6       __vcrt_GetModuleFileNameW  0000000180071ad6 f   vcruntimed:VCRUNTIME140D.dll
 0001:00070adc       __vcrt_GetModuleHandleW    0000000180071adc f   vcruntimed:VCRUNTIME140D.dll
 0001:00070ae2       __vcrt_LoadLibraryExW      0000000180071ae2 f   vcruntimed:VCRUNTIME140D.dll
 0001:00070ae8       abs                        0000000180071ae8 f   ucrtd:ucrtbased.dll
 0001:00070aee       fabs                       0000000180071aee f   ucrtd:ucrtbased.dll
 0001:00070af4       _fpclass                   0000000180071af4 f   ucrtd:ucrtbased.dll
 0001:00070afa       powf                       0000000180071afa f   ucrtd:ucrtbased.dll
 0001:00070b00       sqrtf                      0000000180071b00 f   ucrtd:ucrtbased.dll
 0001:00070b06       cosf                       0000000180071b06 f   ucrtd:ucrtbased.dll
 0001:00070b0c       sinf                       0000000180071b0c f   ucrtd:ucrtbased.dll
 0001:00070b12       atan2f                     0000000180071b12 f   ucrtd:ucrtbased.dll
 0001:00070b18       floorf                     0000000180071b18 f   ucrtd:ucrtbased.dll
 0001:00070b1e       _CrtDbgReport              0000000180071b1e f   ucrtd:ucrtbased.dll
 0001:00070b24       _CrtDbgReportW             0000000180071b24 f   ucrtd:ucrtbased.dll
 0001:00070b2a       _initterm                  0000000180071b2a f   ucrtd:ucrtbased.dll
 0001:00070b30       _initterm_e                0000000180071b30 f   ucrtd:ucrtbased.dll
 0001:00070b36       _callnewh                  0000000180071b36 f   ucrtd:ucrtbased.dll
 0001:00070b3c       malloc                     0000000180071b3c f   ucrtd:ucrtbased.dll
 0001:00070b42       _free_dbg                  0000000180071b42 f   ucrtd:ucrtbased.dll
 0001:00070b48       _seh_filter_dll            0000000180071b48 f   ucrtd:ucrtbased.dll
 0001:00070b4e       _configure_narrow_argv     0000000180071b4e f   ucrtd:ucrtbased.dll
 0001:00070b54       _initialize_narrow_environment 0000000180071b54 f   ucrtd:ucrtbased.dll
 0001:00070b5a       _initialize_onexit_table   0000000180071b5a f   ucrtd:ucrtbased.dll
 0001:00070b60       _register_onexit_function  0000000180071b60 f   ucrtd:ucrtbased.dll
 0001:00070b66       _execute_onexit_table      0000000180071b66 f   ucrtd:ucrtbased.dll
 0001:00070b6c       _crt_atexit                0000000180071b6c f   ucrtd:ucrtbased.dll
 0001:00070b72       _crt_at_quick_exit         0000000180071b72 f   ucrtd:ucrtbased.dll
 0001:00070b78       _cexit                     0000000180071b78 f   ucrtd:ucrtbased.dll
 0001:00070b7e       terminate                  0000000180071b7e f   ucrtd:ucrtbased.dll
 0001:00070b84       strcpy_s                   0000000180071b84 f   ucrtd:ucrtbased.dll
 0001:00070b8a       strcat_s                   0000000180071b8a f   ucrtd:ucrtbased.dll
 0001:00070b90       __stdio_common_vsprintf_s  0000000180071b90 f   ucrtd:ucrtbased.dll
 0001:00070b96       _wmakepath_s               0000000180071b96 f   ucrtd:ucrtbased.dll
 0001:00070b9c       _wsplitpath_s              0000000180071b9c f   ucrtd:ucrtbased.dll
 0001:00070ba2       wcscpy_s                   0000000180071ba2 f   ucrtd:ucrtbased.dll
 0001:00070ba8       RaiseException             0000000180071ba8 f   kernel32:KERNEL32.dll
 0001:00070bae       GetLastError               0000000180071bae f   kernel32:KERNEL32.dll
 0001:00070bb4       GetSystemInfo              0000000180071bb4 f   kernel32:KERNEL32.dll
 0001:00070bba       VirtualProtect             0000000180071bba f   kernel32:KERNEL32.dll
 0001:00070bc0       VirtualQuery               0000000180071bc0 f   kernel32:KERNEL32.dll
 0001:00070bc6       FreeLibrary                0000000180071bc6 f   kernel32:KERNEL32.dll
 0001:00070bcc       GetModuleHandleW           0000000180071bcc f   kernel32:KERNEL32.dll
 0001:00070bd2       GetProcAddress             0000000180071bd2 f   kernel32:KERNEL32.dll
 0001:00070bd8       LoadLibraryExA             0000000180071bd8 f   kernel32:KERNEL32.dll
 0001:00070bde       InitializeSListHead        0000000180071bde f   kernel32:KERNEL32.dll
 0001:00070be4       QueryPerformanceCounter    0000000180071be4 f   kernel32:KERNEL32.dll
 0001:00070bea       GetCurrentProcessId        0000000180071bea f   kernel32:KERNEL32.dll
 0001:00070bf0       GetCurrentThreadId         0000000180071bf0 f   kernel32:KERNEL32.dll
 0001:00070bf6       GetSystemTimeAsFileTime    0000000180071bf6 f   kernel32:KERNEL32.dll
 0001:00070bfc       DisableThreadLibraryCalls  0000000180071bfc f   kernel32:KERNEL32.dll
 0001:00070c02       RtlCaptureContext          0000000180071c02 f   kernel32:KERNEL32.dll
 0001:00070c08       RtlLookupFunctionEntry     0000000180071c08 f   kernel32:KERNEL32.dll
 0001:00070c0e       RtlVirtualUnwind           0000000180071c0e f   kernel32:KERNEL32.dll
 0001:00070c14       IsDebuggerPresent          0000000180071c14 f   kernel32:KERNEL32.dll
 0001:00070c1a       UnhandledExceptionFilter   0000000180071c1a f   kernel32:KERNEL32.dll
 0001:00070c20       SetUnhandledExceptionFilter 0000000180071c20 f   kernel32:KERNEL32.dll
 0001:00070c26       GetStartupInfoW            0000000180071c26 f   kernel32:KERNEL32.dll
 0001:00070c2c       IsProcessorFeaturePresent  0000000180071c2c f   kernel32:KERNEL32.dll
 0001:00070c32       MultiByteToWideChar        0000000180071c32 f   kernel32:KERNEL32.dll
 0001:00070c38       WideCharToMultiByte        0000000180071c38 f   kernel32:KERNEL32.dll
 0001:00070c3e       HeapAlloc                  0000000180071c3e f   kernel32:KERNEL32.dll
 0001:00070c44       HeapFree                   0000000180071c44 f   kernel32:KERNEL32.dll
 0001:00070c4a       GetProcessHeap             0000000180071c4a f   kernel32:KERNEL32.dll
 0001:00070c50       GetCurrentProcess          0000000180071c50 f   kernel32:KERNEL32.dll
 0001:00070c56       TerminateProcess           0000000180071c56 f   kernel32:KERNEL32.dll
 0001:00070c60       __vcrt_initialize          0000000180071c60 f   MSVCRTD:ucrt_stubs.obj
 0001:00070c60       __acrt_initialize          0000000180071c60 f   MSVCRTD:ucrt_stubs.obj
 0001:00070c60       __scrt_stub_for_acrt_initialize 0000000180071c60 f   MSVCRTD:ucrt_stubs.obj
 0001:00070c70       __acrt_thread_attach       0000000180071c70 f   MSVCRTD:ucrt_stubs.obj
 0001:00070c70       __scrt_stub_for_acrt_thread_attach 0000000180071c70 f   MSVCRTD:ucrt_stubs.obj
 0001:00070c70       __vcrt_thread_attach       0000000180071c70 f   MSVCRTD:ucrt_stubs.obj
 0001:00070c80       __vcrt_thread_detach       0000000180071c80 f   MSVCRTD:ucrt_stubs.obj
 0001:00070c80       __scrt_stub_for_acrt_thread_detach 0000000180071c80 f   MSVCRTD:ucrt_stubs.obj
 0001:00070c80       __acrt_thread_detach       0000000180071c80 f   MSVCRTD:ucrt_stubs.obj
 0001:00070c90       __vcrt_uninitialize        0000000180071c90 f   MSVCRTD:ucrt_stubs.obj
 0001:00070c90       __acrt_uninitialize        0000000180071c90 f   MSVCRTD:ucrt_stubs.obj
 0001:00070c90       __scrt_stub_for_acrt_uninitialize 0000000180071c90 f   MSVCRTD:ucrt_stubs.obj
 0001:00070ca0       __acrt_uninitialize_critical 0000000180071ca0 f   MSVCRTD:ucrt_stubs.obj
 0001:00070ca0       __scrt_stub_for_acrt_uninitialize_critical 0000000180071ca0 f   MSVCRTD:ucrt_stubs.obj
 0001:00070ca0       __vcrt_uninitialize_critical 0000000180071ca0 f   MSVCRTD:ucrt_stubs.obj
 0001:00070cb0       _is_c_termination_complete 0000000180071cb0 f   MSVCRTD:ucrt_stubs.obj
 0001:00070cb0       __scrt_stub_for_is_c_termination_complete 0000000180071cb0 f   MSVCRTD:ucrt_stubs.obj
 0001:00072960       __guard_ss_verify_failure  0000000180073960 f   MSVCRTD:_rfgfailure_.obj
 0001:0007296b       __guard_ss_verify_failure_rcx 000000018007396b     MSVCRTD:_rfgfailure_.obj
 0001:00072971       __guard_ss_verify_failure_rdx 0000000180073971     MSVCRTD:_rfgfailure_.obj
 0001:00072977       __guard_ss_verify_failure_r8 0000000180073977     MSVCRTD:_rfgfailure_.obj
 0001:0007297d       __guard_ss_verify_failure_r9 000000018007397d     MSVCRTD:_rfgfailure_.obj
 0001:00072983       __guard_ss_verify_failure_r10 0000000180073983     MSVCRTD:_rfgfailure_.obj
 0001:00072990       __guard_ss_verify_failure_default 0000000180073990 f   MSVCRTD:_rfgfailure_.obj
 0001:000729f0       __guard_ss_verify_sp       00000001800739f0 f   MSVCRTD:_rfgfailure_.obj
 0001:00072a00       __guard_ss_verify_sp_default 0000000180073a00 f   MSVCRTD:_rfgfailure_.obj
 0001:00072a40       _guard_dispatch_icall_nop  0000000180073a40 f   MSVCRTD:_guard_dispatch_.obj
 0002:00000000       __xc_a                     0000000180076000     MSVCRTD:initializers.obj
 0002:00000430       __xc_z                     0000000180076430     MSVCRTD:initializers.obj
 0002:00000540       __xi_a                     0000000180076540     MSVCRTD:initializers.obj
 0002:00000650       __xi_z                     0000000180076650     MSVCRTD:initializers.obj
 0002:00000760       __xp_a                     0000000180076760     MSVCRTD:initializers.obj
 0002:00000870       __xp_z                     0000000180076870     MSVCRTD:initializers.obj
 0002:00000980       __xt_a                     0000000180076980     MSVCRTD:initializers.obj
 0002:00000a90       __xt_z                     0000000180076a90     MSVCRTD:initializers.obj
 0002:00000ba0       ??_C@_0N@PENLEBPP@PxFoundation?$AA@ 0000000180076ba0     WindowsCookingDelayLoadHook.obj
 0002:00000bb0       ??_C@_05KOLFGEDA@DEBUG?$AA@ 0000000180076bb0     WindowsCookingDelayLoadHook.obj
 0002:00000bb8       ??_C@_07KELMHNNG@CHECKED?$AA@ 0000000180076bb8     WindowsCookingDelayLoadHook.obj
 0002:00000bc8       ??_C@_07EAJOOGMN@PROFILE?$AA@ 0000000180076bc8     WindowsCookingDelayLoadHook.obj
 0002:00000bd8       ??_C@_0N@BBNMPFJK@PhysX3Common?$AA@ 0000000180076bd8     WindowsCookingDelayLoadHook.obj
 0002:00000be8       ??_C@_08DLKLOFHK@PxPvdSDK?$AA@ 0000000180076be8     WindowsCookingDelayLoadHook.obj
 0002:00000c00       ??_C@_0FN@GFMAJHJP@D?3?2DEV?2Libaries?2Physx?2PhysX?93?44?9@ 0000000180076c00     HeightFieldCooking.obj
 0002:00000c70       ??_C@_0L@ICMNFAAK@index?5?$DM?$DN?52?$AA@ 0000000180076c70     HeightFieldCooking.obj
 0002:00000c80       ?g_PXSinCoefficients0@aos@shdfnd@physx@@3UPX_VECTORF32@123@B 0000000180076c80     RTreeCooking.obj
 0002:00000ca0       ?g_PXSinCoefficients1@aos@shdfnd@physx@@3UPX_VECTORF32@123@B 0000000180076ca0     RTreeCooking.obj
 0002:00000cc0       ?g_PXSinCoefficients2@aos@shdfnd@physx@@3UPX_VECTORF32@123@B 0000000180076cc0     RTreeCooking.obj
 0002:00000ce0       ?g_PXCosCoefficients0@aos@shdfnd@physx@@3UPX_VECTORF32@123@B 0000000180076ce0     RTreeCooking.obj
 0002:00000d00       ?g_PXCosCoefficients1@aos@shdfnd@physx@@3UPX_VECTORF32@123@B 0000000180076d00     RTreeCooking.obj
 0002:00000d20       ?g_PXCosCoefficients2@aos@shdfnd@physx@@3UPX_VECTORF32@123@B 0000000180076d20     RTreeCooking.obj
 0002:00000d40       ?g_PXTanCoefficients0@aos@shdfnd@physx@@3UPX_VECTORF32@123@B 0000000180076d40     RTreeCooking.obj
 0002:00000d60       ?g_PXTanCoefficients1@aos@shdfnd@physx@@3UPX_VECTORF32@123@B 0000000180076d60     RTreeCooking.obj
 0002:00000d80       ?g_PXTanCoefficients2@aos@shdfnd@physx@@3UPX_VECTORF32@123@B 0000000180076d80     RTreeCooking.obj
 0002:00000e40       ?reductionFactors@SubSortQuick@physx@@2QBMB 0000000180076e40     RTreeCooking.obj
 0002:00000e50       ?stopAtTrisPerLeaf1@SubSortQuick@physx@@2QBIB 0000000180076e50     RTreeCooking.obj
 0002:00000ea0       ?g_PXASinCoefficients0@aos@shdfnd@physx@@3UPX_VECTORF32@123@B 0000000180076ea0     RTreeCooking.obj
 0002:00000ec0       ?g_PXASinCoefficients1@aos@shdfnd@physx@@3UPX_VECTORF32@123@B 0000000180076ec0     RTreeCooking.obj
 0002:00000ee0       ?g_PXASinCoefficients2@aos@shdfnd@physx@@3UPX_VECTORF32@123@B 0000000180076ee0     RTreeCooking.obj
 0002:00000f00       ?g_PXATanCoefficients0@aos@shdfnd@physx@@3UPX_VECTORF32@123@B 0000000180076f00     RTreeCooking.obj
 0002:00000f20       ?g_PXATanCoefficients1@aos@shdfnd@physx@@3UPX_VECTORF32@123@B 0000000180076f20     RTreeCooking.obj
 0002:00000f40       ?g_PXATanCoefficients2@aos@shdfnd@physx@@3UPX_VECTORF32@123@B 0000000180076f40     RTreeCooking.obj
 0002:00000f60       ?g_PXSinEstCoefficients@aos@shdfnd@physx@@3UPX_VECTORF32@123@B 0000000180076f60     RTreeCooking.obj
 0002:00000f80       ?g_PXCosEstCoefficients@aos@shdfnd@physx@@3UPX_VECTORF32@123@B 0000000180076f80     RTreeCooking.obj
 0002:00000fa0       ?g_PXTanEstCoefficients@aos@shdfnd@physx@@3UPX_VECTORF32@123@B 0000000180076fa0     RTreeCooking.obj
 0002:00000fc0       ?g_PXATanEstCoefficients@aos@shdfnd@physx@@3UPX_VECTORF32@123@B 0000000180076fc0     RTreeCooking.obj
 0002:00000fe0       ?g_PXASinEstCoefficients@aos@shdfnd@physx@@3UPX_VECTORF32@123@B 0000000180076fe0     RTreeCooking.obj
 0002:00001000       ?g_PXASinEstConstants@aos@shdfnd@physx@@3UPX_VECTORF32@123@B 0000000180077000     RTreeCooking.obj
 0002:00001020       ?g_PXPiConstants0@aos@shdfnd@physx@@3UPX_VECTORF32@123@B 0000000180077020     RTreeCooking.obj
 0002:00001040       ?g_PXReciprocalTwoPi@aos@shdfnd@physx@@3UPX_VECTORF32@123@B 0000000180077040     RTreeCooking.obj
 0002:00001060       ?g_PXTwoPi@aos@shdfnd@physx@@3UPX_VECTORF32@123@B 0000000180077060     RTreeCooking.obj
 0002:00001080       ??_C@_0GA@NEAMGIIB@D?3?2DEV?2Libaries?2Physx?2PhysX?93?44?9@ 0000000180077080     RTreeCooking.obj
 0002:000010f8       ??_C@_0BL@KNHPBBHJ@isValid?$CI?$CJ?5?$CG?$CG?5box?4isValid?$CI?$CJ?$AA@ 00000001800770f8     RTreeCooking.obj
 0002:00001118       ??_C@_0BA@DLCJDKDM@NonTrackedAlloc?$AA@ 0000000180077118     RTreeCooking.obj
 0002:00001130       ??_C@_0HF@NKPGGEGK@d?3?2dev?2libaries?2physx?2physx?93?44?9@ 0000000180077130     RTreeCooking.obj
 0002:000011c0       ??_C@_0BB@OMCPGIOD@isValidFloatV?$CIa?$CJ?$AA@ 00000001800771c0     RTreeCooking.obj
 0002:000011d8       ??_C@_0BH@MCAIKHPH@isAligned16?$CI?$CIvoid?$CK?$CJ?$CGf?$CJ?$AA@ 00000001800771d8     RTreeCooking.obj
 0002:000011f8       ??_C@_0BG@JKJBBGNK@isAligned16?$CI?$CIvoid?$CK?$CJf?$CJ?$AA@ 00000001800771f8     RTreeCooking.obj
 0002:00001218       ??_C@_0BB@OJGAHOGG@isValidFloatV?$CIf?$CJ?$AA@ 0000000180077218     RTreeCooking.obj
 0002:00001230       ??_C@_0BA@EMELBPPG@isValidVec3V?$CIa?$CJ?$AA@ 0000000180077230     RTreeCooking.obj
 0002:00001248       ??_C@_0BA@EOANKBKP@isValidVec3V?$CIb?$CJ?$AA@ 0000000180077248     RTreeCooking.obj
 0002:00001260       ??_C@_0CN@HEFMNGKD@?4?4?2?4?4?2PhysXCooking?2src?2mesh?2RTre@ 0000000180077260     RTreeCooking.obj
 0002:00001298       ??_C@_0DP@MOLEKNBA@Input?5mesh?5triangle?8s?5vertex?5ind@ 0000000180077298     RTreeCooking.obj
 0002:000012e8       ??_C@_0CE@OPCEFGPD@permute?5?$CL?5clusterSize?5?$DM?$DN?5permute@ 00000001800772e8     RTreeCooking.obj
 0002:00001318       ??_C@_0CC@IFBCLGG@maxBoundsPerLeafPage?5?$DO?$DN?5RTREE_N?9@ 0000000180077318     RTreeCooking.obj
 0002:00001340       ??_C@_0BA@DLODHOME@clusterSize?5?$DO?50?$AA@ 0000000180077340     RTreeCooking.obj
 0002:00001358       ??_C@_0CB@HNMOHOIM@permute?$FL0?$FN?5?$DM?5boundCenters?4size?$CI?$CJ@ 0000000180077358     RTreeCooking.obj
 0002:00001380       ??_C@_0CB@BHHEMBKC@permute?$FLi?$FN?5?$DM?5boundCenters?4size?$CI?$CJ@ 0000000180077380     RTreeCooking.obj
 0002:000013a8       ??_C@_0DE@FNPGHHHI@leftover?5?$DN?$DN?50?5?$HM?$HM?5cluster4?$CKi?5?$CL?5co@ 00000001800773a8     RTreeCooking.obj
 0002:000013e8       ??_C@_0CP@DKNKGHIK@splitEndL?9splitStartL?5?$DN?$DN?5splitSt@ 00000001800773e8     RTreeCooking.obj
 0002:00001420       ??_C@_0BJ@DBNEPNIE@splitStartL?5?$DM?$DN?5splitEndL?$AA@ 0000000180077420     RTreeCooking.obj
 0002:00001440       ??_C@_0BJ@CMNIPACK@splitStartR?5?$DO?$DN?5splitEndR?$AA@ 0000000180077440     RTreeCooking.obj
 0002:00001460       ??_C@_0P@FDBOEJDH@splitEndR?5?$DO?$DN?51?$AA@ 0000000180077460     RTreeCooking.obj
 0002:00001478       ??_C@_0BP@OBBGEEJF@splitEndL?5?$DM?5PxI32?$CIclusterSize?$CJ?$AA@ 0000000180077478     RTreeCooking.obj
 0002:000014a0       ??_C@_0EE@HMDFAMJJ@?$CIcountL0?5?$DN?$DN?5countR0?$CJ?5?$CG?$CG?5?$CIcountL0@ 00000001800774a0     RTreeCooking.obj
 0002:000014f8       ??_C@_0CG@HKJJBOBJ@PxU32?$CIcountL?5?$CL?5countR?$CJ?5?$DN?$DN?5cluste@ 00000001800774f8     RTreeCooking.obj
 0002:00001528       ??_C@_0BB@BLBBKHCG@split?4count?5?$DO?$DN?51?$AA@ 0000000180077528     RTreeCooking.obj
 0002:00001540       ??_C@_0BH@CPBDCMGA@maxSplit?5?$CB?$DN?50xFFFFffff?$AA@ 0000000180077540     RTreeCooking.obj
 0002:00001560       ??_C@_0O@KGFPNKLN@old?4count?5?$DO?51?$AA@ 0000000180077560     RTreeCooking.obj
 0002:00001570       ??_C@_0BA@MHFPJACL@splitLocal?5?$DO?$DN?51?$AA@ 0000000180077570     RTreeCooking.obj
 0002:00001588       ??_C@_0BK@HBDDGBBB@old?4count?9splitLocal?5?$DO?$DN?51?$AA@ 0000000180077588     RTreeCooking.obj
 0002:000015a8       ??_C@_0BJ@CFFGDPAB@splits?4size?$CI?$CJ?5?$DN?$DN?5RTREE_N?$AA@ 00000001800775a8     RTreeCooking.obj
 0002:000015c8       ??_C@_0BD@CJCBODNJ@sum?5?$DN?$DN?5clusterSize?$AA@ 00000001800775c8     RTreeCooking.obj
 0002:000015e0       ??_C@_0CB@OOGGJCCO@splitStarts?$FLj?91?$FN?$DM?$DNsplitStarts?$FLj?$FN@ 00000001800775e0     RTreeCooking.obj
 0002:00001608       ??_C@_0CM@MIFOAGPK@splitCounts?$FLj?$FN?5?$DO?50?5?$HM?$HM?5clusterSiz@ 0000000180077608     RTreeCooking.obj
 0002:00001640       ??_C@_0DC@FKLAKLHP@splitStarts?$FLj?91?$FN?$CLsplitCounts?$FLj?91@ 0000000180077640     RTreeCooking.obj
 0002:00001680       ??_C@_0BJ@KOIGDPK@sumCounts?5?$DN?$DN?5clusterSize?$AA@ 0000000180077680     RTreeCooking.obj
 0002:000016a0       ??_C@_0DL@DKLKFAKJ@splitStarts?$FLRTREE_N?91?$FN?$CLsplitCoun@ 00000001800776a0     RTreeCooking.obj
 0002:000016e8       ??_C@_0BB@EAGMBNDP@splitCount?5?$DM?$DN?516?$AA@ 00000001800776e8     RTreeCooking.obj
 0002:00001700       ??_C@_0BA@FINHNEIC@splitCount?5?$DN?$DN?50?$AA@ 0000000180077700     RTreeCooking.obj
 0002:00001718       ??_C@_0DA@DMMOJMPK@hint?5?$DN?$DN?5PxMeshCookingHint?3?3eCOOK@ 0000000180077718     RTreeCooking.obj
 0002:00001758       ??_C@_0BP@JDMAEMGC@permute?$FLnumBounds?$FN?5?$DN?$DN?5sentinel?$AA@ 0000000180077758     RTreeCooking.obj
 0002:00001780       ??_C@_0BB@FMHDLFFI@?$CIq?4ptr?5?$CG?51?$CJ?5?$DN?$DN?50?$AA@ 0000000180077780     RTreeCooking.obj
 0002:00001798       ??_C@_0L@DLMKKOLK@q?4isLeaf?$CI?$CJ?$AA@ 0000000180077798     RTreeCooking.obj
 0002:000017a8       ??_C@_0DJ@FPPKJOAC@child?4leafCount?5?$DN?$DN?5?91?5?$HM?$HM?5child?4b@ 00000001800777a8     RTreeCooking.obj
 0002:000017f0       ??_C@_0BF@NIPNCMBP@q?4ptr?5?$CF?5RTREE_N?5?$DN?$DN?50?$AA@ 00000001800777f0     RTreeCooking.obj
 0002:00001810       ??_C@_0CB@PPFJJKOM@qtreeNodes?4size?$CI?$CJ?5?$CF?5RTREE_N?5?$DN?$DN?50@ 0000000180077810     RTreeCooking.obj
 0002:00001838       ??_C@_0CD@GGMNBOAH@result?4mTotalNodes?5?$CF?5pageSize?5?$DN?$DN@ 0000000180077838     RTreeCooking.obj
 0002:00001870       ??_C@_0GC@IBLFBFBN@D?3?2DEV?2Libaries?2Physx?2PhysX?93?44?9@ 0000000180077870     RTreeCooking.obj
 0002:000018e8       ??_C@_09GCLCCGEM@i?5?$DM?5mSize?$AA@ 00000001800778e8     RTreeCooking.obj
 0002:000018f4       ??_C@_05ICCGDNCO@mSize?$AA@ 00000001800778f4     RTreeCooking.obj
 0002:00001900       ??_C@_0BM@BMFMDKFG@this?9?$DOcapacity?$CI?$CJ?5?$DM?5capacity?$AA@ 0000000180077900     RTreeCooking.obj
 0002:00001928       ??_C@_0CP@CPGGIPKL@?$CI?$CBcapacity?$CJ?5?$HM?$HM?5?$CInewData?5?$CG?$CG?5?$CInewD@ 0000000180077928     RTreeCooking.obj
 0002:00001960       ??_C@_0GN@LEKINOO@d?3?2dev?2libaries?2physx?2physx?93?44?9@ 0000000180077960     RTreeCooking.obj
 0002:000019e8       ??_C@_0BC@IFJJKIC@k?5?$DM?$DN?5right?9left?$CL1?$AA@ 00000001800779e8     RTreeCooking.obj
 0002:00001a00       ??_C@_0BC@KALADCPB@pivotNewIndex?5?$DO?50?$AA@ 0000000180077a00     RTreeCooking.obj
 0002:00001a18       ??_C@_0CK@HLNPMLG@pivotIndex?5?$DO?$DN?5left?5?$CG?$CG?5pivotIndex@ 0000000180077a18     RTreeCooking.obj
 0002:00001a50       ??_C@_0BN@MBNGPAEL@cmpLtEq?$CIa?$FLi?$FN?0?5a?$FLstoreIndex?$FN?$CJ?$AA@ 0000000180077a50     RTreeCooking.obj
 0002:00001a78       ??_C@_0BN@PDFALILH@cmpLtEq?$CIa?$FLstoreIndex?$FN?0?5a?$FLi?$FN?$CJ?$AA@ 0000000180077a78     RTreeCooking.obj
 0002:00001aa0       ??_C@_0GB@KPHENCAH@D?3?2DEV?2Libaries?2Physx?2PhysX?93?44?9@ 0000000180077aa0     RTreeCooking.obj
 0002:00001b18       ??_C@_0CE@KHOCKGAK@first?5?$DO?$DN?50?5?$CG?$CG?5last?5?$DM?5int32_t?$CIcou@ 0000000180077b18     RTreeCooking.obj
 0002:00001b48       ??_C@_0CH@IDCBKFGC@?$CBcompare?$CIelements?$FLi?$FN?0?5elements?$FLi@ 0000000180077b48     RTreeCooking.obj
 0002:00001b80       ??_C@_0GK@JFHAAOLP@d?3?2dev?2libaries?2physx?2physx?93?44?9@ 0000000180077b80     RTreeCooking.obj
 0002:00001c00       ??_C@_08JNEJNCCA@?$CBempty?$CI?$CJ?$AA@ 0000000180077c00     RTreeCooking.obj
 0002:00001c10       ??_C@_0BI@CKODGONH@i?5?$DM?$DN?5last?5?$CG?$CG?5j?5?$DO?$DN?5first?$AA@ 0000000180077c10     RTreeCooking.obj
 0002:00001c30       ??_C@_0CB@GKHFJDAL@i?5?$DM?$DN?5last?5?$CG?$CG?5first?5?$DM?$DN?5?$CIlast?5?9?51?$CJ@ 0000000180077c30     RTreeCooking.obj
 0002:00001c58       __real@3a03126f            0000000180077c58     RTreeCooking.obj
 0002:00001c5c       __real@3a83126f            0000000180077c5c     RTreeCooking.obj
 0002:00001c60       __real@3c23d70a            0000000180077c60     RTreeCooking.obj
 0002:00001c64       __real@3f800000            0000000180077c64     RTreeCooking.obj
 0002:00001c68       __real@41100000            0000000180077c68     RTreeCooking.obj
 0002:00001c6c       __real@41700000            0000000180077c6c     RTreeCooking.obj
 0002:00001c70       __real@42200000            0000000180077c70     RTreeCooking.obj
 0002:00001c74       __real@477fff00            0000000180077c74     RTreeCooking.obj
 0002:00001c78       __real@7e7fffff            0000000180077c78     RTreeCooking.obj
 0002:00001c7c       __real@7f7fffff            0000000180077c7c     RTreeCooking.obj
 0002:00001c80       __real@ba83126f            0000000180077c80     RTreeCooking.obj
 0002:00001c84       __real@fe7fffff            0000000180077c84     RTreeCooking.obj
 0002:00001c88       __real@ff7fffff            0000000180077c88     RTreeCooking.obj
 0002:00001cc0       ??_C@_0GG@KNPELAGE@d?3?2dev?2libaries?2physx?2physx?93?44?9@ 0000000180077cc0     TriangleMeshBuilder.obj
 0002:00001d40       ??_C@_0P@JLLGKKGO@nb?$DO0?5?$CG?$CG?5nb?$DM?$DN16?$AA@ 0000000180077d40     TriangleMeshBuilder.obj
 0002:00001d58       ??_C@_0BA@IGNEICFC@index?5?$DM?5?$CI1?$DM?$DM27?$CJ?$AA@ 0000000180077d58     TriangleMeshBuilder.obj
 0002:00001d70       ??_7TriangleMeshData@Gu@physx@@6B@ 0000000180077d70     TriangleMeshBuilder.obj
 0002:00001d80       ??_C@_0GJ@LFPNMFK@D?3?2DEV?2Libaries?2Physx?2PhysX?93?44?9@ 0000000180077d80     TriangleMeshBuilder.obj
 0002:00001e00       ??_C@_0L@HCMLOHBN@?$CBmVertices?$AA@ 0000000180077e00     TriangleMeshBuilder.obj
 0002:00001e10       ??_C@_06KDGGGLIJ@PxVec3?$AA@ 0000000180077e10     TriangleMeshBuilder.obj
 0002:00001e18       ??_C@_0M@OGEDMEAL@mNbVertices?$AA@ 0000000180077e18     TriangleMeshBuilder.obj
 0002:00001e28       ??_C@_0M@DCCDOKKK@?$CBmTriangles?$AA@ 0000000180077e28     TriangleMeshBuilder.obj
 0002:00001e38       ??_C@_0L@KBOFAKLO@mTriangles?$AA@ 0000000180077e38     TriangleMeshBuilder.obj
 0002:00001e48       ??_C@_0BA@OCOIGPII@mGRB_triIndices?$AA@ 0000000180077e48     TriangleMeshBuilder.obj
 0002:00001e60       ??_C@_0N@MGGDNHNI@mNbTriangles?$AA@ 0000000180077e60     TriangleMeshBuilder.obj
 0002:00001e70       ??_C@_0BC@JJFONCPB@?$CBmMaterialIndices?$AA@ 0000000180077e70     TriangleMeshBuilder.obj
 0002:00001e88       ??_C@_0N@BIOECAPM@mAdjacencies?$AA@ 0000000180077e88     TriangleMeshBuilder.obj
 0002:00001e98       ??_7RTreeTriangleData@Gu@physx@@6B@ 0000000180077e98     TriangleMeshBuilder.obj
 0002:00001ea8       ??_7BV4TriangleData@Gu@physx@@6B@ 0000000180077ea8     TriangleMeshBuilder.obj
 0002:00001eb8       ??_7RemapCallback@RTreeCooker@physx@@6B@ 0000000180077eb8     TriangleMeshBuilder.obj
 0002:00001ed0       ??_7TriangleMeshBuilder@physx@@6B@ 0000000180077ed0     TriangleMeshBuilder.obj
 0002:00001f00       ??_7RTreeTriangleMeshBuilder@physx@@6B@ 0000000180077f00     TriangleMeshBuilder.obj
 0002:00001f30       ??_7BV4TriangleMeshBuilder@physx@@6B@ 0000000180077f30     TriangleMeshBuilder.obj
 0002:00001f60       ??_C@_0GG@PFNEKPGH@D?3?2DEV?2Libaries?2Physx?2PhysX?93?44?9@ 0000000180077f60     TriangleMeshBuilder.obj
 0002:00001fe0       ??_C@_0BA@DPPPOJBK@value?5?$DM?$DN?50xffff?$AA@ 0000000180077fe0     TriangleMeshBuilder.obj
 0002:00001ff8       ??_C@_0M@OJJHBOGG@edgeLookups?$AA@ 0000000180077ff8     TriangleMeshBuilder.obj
 0002:00002010       ??_C@_0HI@BPMGANPM@d?3?2dev?2libaries?2physx?2physx?93?44?9@ 0000000180078010     TriangleMeshBuilder.obj
 0002:000020a0       ??_C@_0BF@CCKBOJFO@Gu?3?3TriangleT?$DMPxU32?$DO?$AA@ 00000001800780a0     TriangleMeshBuilder.obj
 0002:000020c0       ??_C@_0DE@NHIHKD@?4?4?2?4?4?2PhysXCooking?2src?2mesh?2Tria@ 00000001800780c0     TriangleMeshBuilder.obj
 0002:00002100       ??_C@_0BN@CIBFOBD@mMeshData?4mFaceRemap?5?$DN?$DN?5NULL?$AA@ 0000000180078100     TriangleMeshBuilder.obj
 0002:00002128       ??_C@_0DJ@IGODLHLP@TriangleMesh?3?5Enable?5mesh?5weldin@ 0000000180078128     TriangleMeshBuilder.obj
 0002:00002170       ??_C@_0DK@FCJMKOOB@?$CB?$CImMeshData?4mFlags?5?$CG?5PxTriangleM@ 0000000180078170     TriangleMeshBuilder.obj
 0002:000021b8       ??_C@_0CN@PJHOIFC@vref0?$CB?$DNvref1?5?$CG?$CG?5vref0?$CB?$DNvref2?5?$CG?$CG?5@ 00000001800781b8     TriangleMeshBuilder.obj
 0002:000021f0       ??_C@_0FJ@HHJLKGDF@TriangleMesh?3?5triangles?5are?5too?5@ 00000001800781f0     TriangleMeshBuilder.obj
 0002:00002260       ??_C@_0CB@EMMCJFHN@mMeshData?4mExtraTrigData?5?$DN?$DN?5NULL@ 0000000180078260     TriangleMeshBuilder.obj
 0002:00002288       ??_C@_0BP@CKKNCBK@mMeshData?4mAdjacencies?5?$DN?$DN?5NULL?$AA@ 0000000180078288     TriangleMeshBuilder.obj
 0002:000022b0       ??_C@_0CN@KGPHHHLK@TriangleMesh?3?5mesh?5is?5too?5big?5fo@ 00000001800782b0     TriangleMeshBuilder.obj
 0002:000022e8       ??_C@_0CP@JJMFODMC@edgeList?9?$DOgetNbFaces?$CI?$CJ?$DN?$DNmMeshDat@ 00000001800782e8     TriangleMeshBuilder.obj
 0002:00002320       ??_C@_0MN@KDBIPDPP@?$CIGu?3?3EdgeTriangleAC?3?3HasActiveEd@ 0000000180078320     TriangleMeshBuilder.obj
 0002:00002420       ??_C@_0MN@OEBKAMJJ@?$CIGu?3?3EdgeTriangleAC?3?3HasActiveEd@ 0000000180078420     TriangleMeshBuilder.obj
 0002:00002520       ??_C@_0MN@BBNOFGBG@?$CIGu?3?3EdgeTriangleAC?3?3HasActiveEd@ 0000000180078520     TriangleMeshBuilder.obj
 0002:00002618       ??_C@_0BK@FKMANKEB@mMeshData?4mGRB_triIndices?$AA@ 0000000180078618     TriangleMeshBuilder.obj
 0002:00002638       ??_C@_0BL@DLEDFNFP@tempNormalsPerTri_prealloc?$AA@ 0000000180078638     TriangleMeshBuilder.obj
 0002:00002658       ??_C@_0BD@NDAFHHFF@GRB_triAdjacencies?$AA@ 0000000180078658     TriangleMeshBuilder.obj
 0002:00002670       ??_C@_0BF@LOHPHEEH@mMeshData?4mFaceRemap?$AA@ 0000000180078670     TriangleMeshBuilder.obj
 0002:00002690       ??_C@_0BO@FKDPIHHM@index?5?$DM?5originalTriangleCount?$AA@ 0000000180078690     TriangleMeshBuilder.obj
 0002:000026b8       ??_C@_0DD@CMJGDCNN@TriangleMesh?3?3loadFromDesc?3?5desc@ 00000001800786b8     TriangleMeshBuilder.obj
 0002:00002700       ??_C@_0ED@ILJJNHIP@TriangleMesh?3?3loadFromDesc?3?5mPar@ 0000000180078700     TriangleMeshBuilder.obj
 0002:00002750       ??_C@_0CK@BJFFGDPK@input?5mesh?5contains?5corrupted?5ve@ 0000000180078750     TriangleMeshBuilder.obj
 0002:00002788       ??_C@_0BF@DKJOKPOK@materials?$FLi?$FN?$CB?$DN0xffff?$AA@ 0000000180078788     TriangleMeshBuilder.obj
 0002:000027a8       ??_C@_0BJ@BKHDBBHO@cleaning?5the?5mesh?5failed?$AA@ 00000001800787a8     TriangleMeshBuilder.obj
 0002:000027c8       ??_C@_0BE@EBMJPKKK@m?4has16BitIndices?$CI?$CJ?$AA@ 00000001800787c8     TriangleMeshBuilder.obj
 0002:000027e0       ??_C@_0BK@JIDHMMCE@BV4?5tree?5failed?5to?5build?4?$AA@ 00000001800787e0     TriangleMeshBuilder.obj
 0002:00002800       ??_C@_0DJ@MIBEECJD@?$CB?$CImeshData?4mFlags?5?$CG?5PxTriangleMe@ 0000000180078800     TriangleMeshBuilder.obj
 0002:00002848       ??_C@_0BL@DHNECNBE@BV32?5tree?5failed?5to?5build?4?$AA@ 0000000180078848     TriangleMeshBuilder.obj
 0002:00002868       ??_C@_0BN@IOHKHAPP@bv32Tree?9?$DOmNbPackedNodes?5?$DO?50?$AA@ 0000000180078868     TriangleMeshBuilder.obj
 0002:00002890       ??_7RTreeCookerRemap@physx@@6B@ 0000000180078890     TriangleMeshBuilder.obj
 0002:000028a8       ??_C@_0O@PPMFEIKF@leafCount?5?$DO?50?$AA@ 00000001800788a8     TriangleMeshBuilder.obj
 0002:000028b8       ??_C@_0BA@ICGDMFLO@leafCount?5?$DM?$DN?516?$AA@ 00000001800788b8     TriangleMeshBuilder.obj
 0002:000028d0       ??_C@_0BA@KGAJLAMO@start?5?$DM?5mNbTris?$AA@ 00000001800788d0     TriangleMeshBuilder.obj
 0002:000028e8       ??_C@_0BL@MHKJAFOE@start?$CLleafCount?5?$DM?$DN?5mNbTris?$AA@ 00000001800788e8     TriangleMeshBuilder.obj
 0002:00002908       ??_C@_03BALCFKBP@val?$AA@  0000000180078908     TriangleMeshBuilder.obj
 0002:00002910       ??_C@_0CP@NNHNDAFC@resultPermute?4size?$CI?$CJ?5?$DN?$DN?5mMeshDat@ 0000000180078910     TriangleMeshBuilder.obj
 0002:00002948       ??_C@_0BM@OIFKLHDN@?$DMallocation?5names?5disabled?$DO?$AA@ 0000000180078948     TriangleMeshBuilder.obj
 0002:0000296c       __real@00000000            000000018007896c     TriangleMeshBuilder.obj
 0002:00002970       __real@3951b717            0000000180078970     TriangleMeshBuilder.obj
 0002:00002974       __real@3dcccccd            0000000180078974     TriangleMeshBuilder.obj
 0002:00002978       __real@40000000            0000000180078978     TriangleMeshBuilder.obj
 0002:0000297c       __real@48742400            000000018007897c     TriangleMeshBuilder.obj
 0002:00002980       __real@c1b00000            0000000180078980     TriangleMeshBuilder.obj
 0002:00002990       __xmm@80000000800000008000000080000000 0000000180078990     TriangleMeshBuilder.obj
 0002:000029d8       ??_C@_0DH@IKCMPFPC@?4?4?2?4?4?2PhysXCooking?2src?2convex?2Bi@ 00000001800789d8     BigConvexDataBuilder.obj
 0002:00002a20       ??_C@_0DB@BBDOGGPJ@mSVM?9?$DOmData?4mValencies?$FLData?$FLj?$FN?$FN?4@ 0000000180078a20     BigConvexDataBuilder.obj
 0002:00002a60       ??_C@_0EC@HLPJABEO@mSVM?9?$DOmData?4mNbAdjVerts?5?$DN?$DN?5PxU32@ 0000000180078a60     BigConvexDataBuilder.obj
 0002:00002ab0       ??_C@_0CA@DDINCBKD@offset?5?$DM?5mSVM?9?$DOmData?4mNbSamples?$AA@ 0000000180078ab0     BigConvexDataBuilder.obj
 0002:00002ad8       ??_C@_0CB@LJJCNLLL@offset2?5?$DM?5mSVM?9?$DOmData?4mNbSamples@ 0000000180078ad8     BigConvexDataBuilder.obj
 0002:00002b00       __real@3f000000            0000000180078b00     BigConvexDataBuilder.obj
 0002:00002b04       __real@bf800000            0000000180078b04     BigConvexDataBuilder.obj
 0002:00002b38       ??_C@_0O@JELDCDGP@value?5?$DM?$DN?50xff?$AA@ 0000000180078b38     ConvexHullBuilder.obj
 0002:00002b50       ??_C@_0HF@HGACFKOI@d?3?2dev?2libaries?2physx?2physx?93?44?9@ 0000000180078b50     ConvexHullBuilder.obj
 0002:00002be0       ??_C@_0BD@KIEABJPI@mHull?9?$DOmNbPolygons?$AA@ 0000000180078be0     ConvexHullBuilder.obj
 0002:00002bf8       ??_C@_0DE@JCGJGFMG@?4?4?2?4?4?2PhysXCooking?2src?2convex?2Co@ 0000000180078bf8     ConvexHullBuilder.obj
 0002:00002c38       ??_C@_07OKCKIPNN@indices?$AA@ 0000000180078c38     ConvexHullBuilder.obj
 0002:00002c44       ??_C@_05FEEIMKBD@verts?$AA@ 0000000180078c44     ConvexHullBuilder.obj
 0002:00002c50       ??_C@_0N@JMCJKPEF@hullPolygons?$AA@ 0000000180078c50     ConvexHullBuilder.obj
 0002:00002c60       ??_C@_07FOEMFOKK@nbVerts?$AA@ 0000000180078c60     ConvexHullBuilder.obj
 0002:00002c70       ??_C@_0L@FGGGCOIO@nbPolygons?$AA@ 0000000180078c70     ConvexHullBuilder.obj
 0002:00002c80       ??_C@_0EB@DCEIFDGC@ConvexHullBuilder?3?3init?3?5convex?5@ 0000000180078c80     ConvexHullBuilder.obj
 0002:00002cd0       ??_C@_0BE@KOOOMNLC@Gu?3?3HullPolygonData?$AA@ 0000000180078cd0     ConvexHullBuilder.obj
 0002:00002ce8       ??_C@_0M@OKHMOJHP@numVerts?$DO?$DN3?$AA@ 0000000180078ce8     ConvexHullBuilder.obj
 0002:00002d00       ??_C@_0FM@KICBLCBH@Gu?3?3ConvexMesh?3?3checkHullPolygon@ 0000000180078d00     ConvexHullBuilder.obj
 0002:00002d70       ??_C@_0GO@HBFIOGLL@Gu?3?3ConvexMesh?3?3checkHullPolygon@ 0000000180078d70     ConvexHullBuilder.obj
 0002:00002df8       ??_C@_0CC@KHGCOLNH@mHull?9?$DOmNbEdges?5?$DM?$CI?5?$CI1?5?$DM?$DM?515?$CJ?5?9?51@ 0000000180078df8     ConvexHullBuilder.obj
 0002:00002e20       ??_C@_0CB@DAIGCNKP@mHull?9?$DOmNbEdges?5?$DM?$CI?$CI1?5?$DM?$DM?515?$CJ?5?9?51?$CJ@ 0000000180078e20     ConvexHullBuilder.obj
 0002:00002e48       ??_C@_0BE@EJGGFHND@ConvexHullData?5data?$AA@ 0000000180078e48     ConvexHullBuilder.obj
 0002:00002e60       ??_C@_0CN@FMCHMHF@?$CB?$CIsize_t?$CIdataHullVertices?$CJ?5?$CF?5siz@ 0000000180078e60     ConvexHullBuilder.obj
 0002:00002e98       ??_C@_0CP@PEBAMPKB@?$CB?$CIsize_t?$CIhullData?4mPolygons?$CJ?5?$CF?5s@ 0000000180078e98     ConvexHullBuilder.obj
 0002:00002ed0       ??_C@_0DE@PBHJOBNJ@size_t?$CIaddress?$CJ?5?$DM?$DN?5size_t?$CIdataMe@ 0000000180078ed0     ConvexHullBuilder.obj
 0002:00002f10       ??_C@_0BG@MJLOHHDN@mHullDataHullVertices?$AA@ 0000000180078f10     ConvexHullBuilder.obj
 0002:00002f30       ??_C@_0BC@JILNBNOE@mHullDataPolygons?$AA@ 0000000180078f30     ConvexHullBuilder.obj
 0002:00002f48       ??_C@_0BF@MHHBBNAJ@mHullDataVertexData8?$AA@ 0000000180078f48     ConvexHullBuilder.obj
 0002:00002f68       ??_C@_0BH@KMEGFGPF@mHullDataFacesByEdges8?$AA@ 0000000180078f68     ConvexHullBuilder.obj
 0002:00002f88       ??_C@_0BK@EOBPJLJJ@mHullDataFacesByVertices8?$AA@ 0000000180078f88     ConvexHullBuilder.obj
 0002:00002fb0       ??_C@_0HF@OLJFBIEL@ConvexHullBuilder?3?5convex?5hull?5d@ 0000000180078fb0     ConvexHullBuilder.obj
 0002:00003040       ??_C@_0OG@JNHFOIL@ConvexHullBuilder?3?5convex?5hull?5d@ 0000000180079040     ConvexHullBuilder.obj
 0002:00003160       ??_C@_0EJ@NIOIBAKH@Cooking?3?3cookConvexMesh?3?5non?9man@ 0000000180079160     ConvexHullBuilder.obj
 0002:000031b8       ??_C@_0CE@OELJDBDC@PxU32?$CIrun0?9vRefs0?$CJ?$DN?$DNnbEdgesUnsha@ 00000001800791b8     ConvexHullBuilder.obj
 0002:000031e8       ??_C@_0CE@OPFCBBDF@PxU32?$CIrun1?9vRefs1?$CJ?$DN?$DNnbEdgesUnsha@ 00000001800791e8     ConvexHullBuilder.obj
 0002:00003214       __real@3ca3d70a            0000000180079214     ConvexHullBuilder.obj
 0002:00003218       __real@3eaaaaab            0000000180079218     ConvexHullBuilder.obj
 0002:00003220       ??_C@_09GLGJMIMJ@isValid?$CI?$CJ?$AA@ 0000000180079220     ConvexHullLib.obj
 0002:00003230       ??_7ConvexHullLib@physx@@6B@ 0000000180079230     ConvexHullLib.obj
 0002:00003258       ??_C@_0DA@IJEMKFI@?4?4?2?4?4?2PhysXCooking?2src?2convex?2Co@ 0000000180079258     ConvexHullLib.obj
 0002:00003298       ??_C@_0DG@JCINKFOO@mConvexMeshDesc?4flags?5?$CG?5PxConvex@ 0000000180079298     ConvexHullLib.obj
 0002:000032d8       ??_C@_05LMJPANIN@PxU32?$AA@ 00000001800792d8     ConvexHullLib.obj
 0002:000032e0       ??_C@_0CA@ENKNMFDJ@indexBase?5?$DN?$DN?5desc?4indices?4count?$AA@ 00000001800792e0     ConvexHullLib.obj
 0002:00003308       __real@358637bd            0000000180079308     ConvexHullLib.obj
 0002:0000330c       __real@3d4ccccd            000000018007930c     ConvexHullLib.obj
 0002:00003340       ??_C@_0FN@NPLCJIGO@D?3?2DEV?2Libaries?2Physx?2PhysX?93?44?9@ 0000000180079340     ConvexHullUtils.obj
 0002:000033b0       ??_C@_0CL@BBNJEEEJ@PxAbs?$CI1?40f?5?9?5unitAxis?4magnitude?$CI@ 00000001800793b0     ConvexHullUtils.obj
 0002:000033e8       ??_C@_0BB@OOGJNGLK@isValidFloatV?$CIb?$CJ?$AA@ 00000001800793e8     ConvexHullUtils.obj
 0002:00003400       ??_C@_0BB@OPKLLMIN@isValidFloatV?$CIc?$CJ?$AA@ 0000000180079400     ConvexHullUtils.obj
 0002:00003418       ??_C@_0BA@EPMPMLJI@isValidVec3V?$CIc?$CJ?$AA@ 0000000180079418     ConvexHullUtils.obj
 0002:00003430       ??_C@_0DC@LMIOBJIC@?4?4?2?4?4?2PhysXCooking?2src?2convex?2Co@ 0000000180079430     ConvexHullUtils.obj
 0002:0000346c       ??_C@_06CNNCFCIO@vcount?$AA@ 000000018007946c     ConvexHullUtils.obj
 0002:00003478       ??_C@_0BP@BOGLBFED@mEdges?$FLinext?$FN?4p?5?$DN?$DN?5mEdges?$FLi?$FN?4p?$AA@ 0000000180079478     ConvexHullUtils.obj
 0002:000034a0       ??_C@_08BDJPPIKG@nb?5?$CB?$DN?5?91?$AA@ 00000001800794a0     ConvexHullUtils.obj
 0002:000034b0       ??_C@_0CB@CFEGKNLC@i?5?$DN?$DN?5PxU32?$CImEdges?$FLPxU32?$CInb?$CJ?$FN?4ea?$CJ@ 00000001800794b0     ConvexHullUtils.obj
 0002:000034d8       ??_C@_0CH@ICNMLFBK@mEdges?$FLPxU32?$CInb?$CJ?$FN?4v?5?$DN?$DN?5mEdges?$FLin@ 00000001800794d8     ConvexHullUtils.obj
 0002:00003510       ??_C@_0FM@BNLOICHG@local?3?3eCOPLANAR?5?$DN?$DN?5local?3?3plane@ 0000000180079510     ConvexHullUtils.obj
 0002:00003580       ??_C@_0BP@JDJHBJAJ@convex?4getEdges?$CI?$CJ?4size?$CI?$CJ?5?$DM?5480?$AA@ 0000000180079580     ConvexHullUtils.obj
 0002:000035a8       ??_C@_0DA@PGDOKAKB@tmpUnderEdges?$FLunderEdgeCount?$FN?4v?5@ 00000001800795a8     ConvexHullUtils.obj
 0002:000035e8       ??_C@_0CM@NCLAMEIG@edgeFlag?$FLedge0?4ea?$FN?4undermap?5?$CB?$DN?5i@ 00000001800795e8     ConvexHullUtils.obj
 0002:00003620       ??_C@_0BF@KEHLOIPL@vout?5?$CB?$DN?5invalidIndex?$AA@ 0000000180079620     ConvexHullUtils.obj
 0002:00003640       ??_C@_0BF@OKMJIKEK@vin?5?$DM?5vertCountUnder?$AA@ 0000000180079640     ConvexHullUtils.obj
 0002:00003660       ??_C@_0CI@OACGEIKL@edgeFlag?$FLe0?$FN?4undermap?5?$DN?$DN?5underEd@ 0000000180079660     ConvexHullUtils.obj
 0002:00003690       ??_C@_0BE@ODINDNNF@vin?5?$CB?$DN?5invalidIndex?$AA@ 0000000180079690     ConvexHullUtils.obj
 0002:000036a8       ??_C@_0BE@CEIFINGH@coplanarEdge?5?$CB?$DN?5511?$AA@ 00000001800796a8     ConvexHullUtils.obj
 0002:000036c0       ??_C@_0BJ@HIGNANEP@i?5?$DN?$DN?5createdVerts?4size?$CI?$CJ?$AA@ 00000001800796c0     ConvexHullUtils.obj
 0002:000036e0       ??_C@_04NCKNBPPK@PxU8?$AA@ 00000001800796e0     ConvexHullUtils.obj
 0002:000036e8       ??_C@_05CDCIKCPI@Vec4V?$AA@ 00000001800796e8     ConvexHullUtils.obj
 0002:000036f0       __real@00800000            00000001800796f0     ConvexHullUtils.obj
 0002:000036f4       __real@3c8efa35            00000001800796f4     ConvexHullUtils.obj
 0002:000036f8       __real@40400000            00000001800796f8     ConvexHullUtils.obj
 0002:000036fc       __real@41900000            00000001800796fc     ConvexHullUtils.obj
 0002:00003700       __real@4e6e6b28            0000000180079700     ConvexHullUtils.obj
 0002:00003704       __real@bf000000            0000000180079704     ConvexHullUtils.obj
 0002:00003738       ??_C@_0DF@LLFJIJGM@Gu?3?3ConvexMesh?3?3loadFromDesc?3?5de@ 0000000180079738     ConvexMeshBuilder.obj
 0002:00003778       ??_C@_0DE@FMMNMFJD@?4?4?2?4?4?2PhysXCooking?2src?2convex?2Co@ 0000000180079778     ConvexMeshBuilder.obj
 0002:000037c0       ??_C@_0HK@JOGKIEAA@Gu?3?3ConvexMesh?3?5Mesh?5has?5a?5negat@ 00000001800797c0     ConvexMeshBuilder.obj
 0002:00003858       ??_C@_0DH@NJPPHFFD@Gu?3?3ConvexMesh?3?5Error?5computing?5@ 0000000180079858     ConvexMeshBuilder.obj
 0002:000038a0       ??_C@_0DJ@LJDLGLDJ@Gu?3?3ConvexMesh?3?3loadConvexHull?3?5@ 00000001800798a0     ConvexMeshBuilder.obj
 0002:000038f0       ??_C@_0HJ@KJANPPOE@ConvexMeshBuilder?3?3computeHullPo@ 00000001800798f0     ConvexMeshBuilder.obj
 0002:00003988       ??_C@_0O@JMAGMMGG@PxHullPolygon?$AA@ 0000000180079988     ConvexMeshBuilder.obj
 0002:000039a0       ??_C@_0FN@IODHNLIE@indices?$FLoutPolygon?4mIndexBase?5?$CL?5@ 00000001800799a0     ConvexMeshBuilder.obj
 0002:00003a10       __real@0000000000000000    0000000180079a10     ConvexMeshBuilder.obj
 0002:00003a1c       __real@33d6bf95            0000000180079a1c     ConvexMeshBuilder.obj
 0002:00003a20       __real@b3d6bf95            0000000180079a20     ConvexMeshBuilder.obj
 0002:00003a30       __xmm@80000000000000008000000000000000 0000000180079a30     ConvexMeshBuilder.obj
 0002:00003a48       ??_C@_0DI@NHJHAHIK@?4?4?2?4?4?2PhysXCooking?2src?2convex?2Co@ 0000000180079a48     ConvexPolygonsBuilder.obj
 0002:00003a90       ??_C@_0P@BKHDFID@Copy?4size?$CI?$CJ?$DO?$DN2?$AA@ 0000000180079a90     ConvexPolygonsBuilder.obj
 0002:00003aa8       ??_C@_0P@CKIKGGEA@Copy?4size?$CI?$CJ?$DO?$DN1?$AA@ 0000000180079aa8     ConvexPolygonsBuilder.obj
 0002:00003ac0       ??_C@_0L@EHJBDJOI@nbVerts?$DO?$DN3?$AA@ 0000000180079ac0     ConvexPolygonsBuilder.obj
 0002:00003ad0       ??_C@_0BB@KAJHDBOL@wFaces?5?$HM?$HM?5dFaces?$AA@ 0000000180079ad0     ConvexPolygonsBuilder.obj
 0002:00003ae8       ??_C@_0BM@BGNOFOOP@entries?$FL0?$FN?5?$DN?$DN?5entries?$FLnb?91?$FN?$AA@ 0000000180079ae8     ConvexPolygonsBuilder.obj
 0002:00003b10       ??_C@_0DP@PJBJBEGF@Meshmerizer?3?3extractHullPolygons@ 0000000180079b10     ConvexPolygonsBuilder.obj
 0002:00003b60       ??_C@_09PNPFALML@triangles?$AA@ 0000000180079b60     ConvexPolygonsBuilder.obj
 0002:00003b70       ??_C@_0BJ@CIDDLGFP@triangles?$FLi?$CK3?$CL0?$FN?$DM?$DN0xffff?$AA@ 0000000180079b70     ConvexPolygonsBuilder.obj
 0002:00003b90       ??_C@_0BJ@OJLNGJJP@triangles?$FLi?$CK3?$CL1?$FN?$DM?$DN0xffff?$AA@ 0000000180079b90     ConvexPolygonsBuilder.obj
 0002:00003bb0       ??_C@_0BJ@HAFPAPJO@triangles?$FLi?$CK3?$CL2?$FN?$DM?$DN0xffff?$AA@ 0000000180079bb0     ConvexPolygonsBuilder.obj
 0002:00003bd0       ??_C@_0BA@OMHMECP@nbHullVerts?$DM256?$AA@ 0000000180079bd0     ConvexPolygonsBuilder.obj
 0002:00003be8       ??_C@_0BL@MFNKFFFN@Reduced?5vertices?5hull?5data?$AA@ 0000000180079be8     ConvexPolygonsBuilder.obj
 0002:00003c08       ??_C@_0CK@GNGILODA@currentIndex?5?$DM?5numReducedHullDat@ 0000000180079c08     ConvexPolygonsBuilder.obj
 0002:00003c40       ??_C@_0CB@EODAHBEL@data?$FLj?$FN?5?$DM?5mHull?9?$DOmNbHullVertices@ 0000000180079c40     ConvexPolygonsBuilder.obj
 0002:00003c68       ??_C@_0DL@IAFKOCCK@ConvexHullBuilder?3?5convex?5hull?5h@ 0000000180079c68     ConvexPolygonsBuilder.obj
 0002:00003cb0       ??_C@_0BG@OHLOGHMG@triIndex?$DMmNbHullFaces?$AA@ 0000000180079cb0     ConvexPolygonsBuilder.obj
 0002:00003cd0       ??_C@_0DH@CAGLLON@mHullDataPolygons?$FLi?$FN?4mPlane?4dist@ 0000000180079cd0     ConvexPolygonsBuilder.obj
 0002:00003d20       ??_C@_0GF@OJLJHAMH@ConvexHullBuilder?3?3CreateTriangl@ 0000000180079d20     ConvexPolygonsBuilder.obj
 0002:00003da0       ??_C@_0BO@MMNNDACD@nbTriangles?5?$DM?$DN?5maxNbTriangles?$AA@ 0000000180079da0     ConvexPolygonsBuilder.obj
 0002:00003dc8       ??_C@_0BC@GKLGGHPD@size?5?$DM?$DN?5mCapacity?$AA@ 0000000180079dc8     ConvexPolygonsBuilder.obj
 0002:00003de0       __real@3ba3d70a            0000000180079de0     ConvexPolygonsBuilder.obj
 0002:00003de8       ??_C@_0L@MHFEGEFF@value?5?$DO?$DN?50?$AA@ 0000000180079de8     InflationConvexHullLib.obj
 0002:00003df8       ??_7InflationConvexHullLib@physx@@6B@ 0000000180079df8     InflationConvexHullLib.obj
 0002:00003e20       ??_C@_0DJ@PIPIPNEP@?4?4?2?4?4?2PhysXCooking?2src?2convex?2In@ 0000000180079e20     InflationConvexHullLib.obj
 0002:00003e64       ??_C@_05IOMEMJEC@count?$AA@ 0000000180079e64     InflationConvexHullLib.obj
 0002:00003e6c       ??_C@_05PCHPLGBB@m?$CB?$DN?91?$AA@ 0000000180079e6c     InflationConvexHullLib.obj
 0002:00003e74       ??_C@_06HEAFFOBK@m?5?$DO?$DN?50?$AA@ 0000000180079e74     InflationConvexHullLib.obj
 0002:00003e7c       ??_C@_01GBGANLPD@0?$AA@    0000000180079e7c     InflationConvexHullLib.obj
 0002:00003e80       ??_C@_0DC@OMACIGCJ@?$CB?$CIp0?$DN?$DNp1?$HM?$HMp0?$DN?$DNp2?$HM?$HMp0?$DN?$DNp3?$HM?$HMp1?$DN?$DNp2@ 0000000180079e80     InflationConvexHullLib.obj
 0002:00003ec0       ??_C@_0CC@JEDKPPKF@?$CImTriangles?$CJ?$FLPxU32?$CItri?9?$DOid?$CJ?$FN?$DN?$DNtr@ 0000000180079ec0     InflationConvexHullLib.obj
 0002:00003ee8       ??_C@_0BO@HLHIEAN@?$CImTriangles?$CJ?$FLPxU32?$CIt?9?$DOid?$CJ?$FN?$DN?$DNt?$AA@ 0000000180079ee8     InflationConvexHullLib.obj
 0002:00003f0c       ??_C@_04POHJOBKC@a?$CB?$DNb?$AA@ 0000000180079f0c     InflationConvexHullLib.obj
 0002:00003f18       ??_C@_0DB@LMAHMLH@?$CImTriangles?$CJ?$FLPxU32?$CIt?9?$DOn?$FLi?$FN?$CJ?$FN?9?$DOne@ 0000000180079f18     InflationConvexHullLib.obj
 0002:00003f58       ??_C@_0DG@NGBMPFIO@?$CImTriangles?$CJ?$FLPxU32?$CIs?9?$DOneib?$CIa?0b?$CJ?$CJ@ 0000000180079f58     InflationConvexHullLib.obj
 0002:00003f98       ??_C@_0DG@MIFAKIIN@?$CImTriangles?$CJ?$FLPxU32?$CIt?9?$DOneib?$CIa?0b?$CJ?$CJ@ 0000000180079f98     InflationConvexHullLib.obj
 0002:00003fd8       ??_C@_0P@PBDDJBHM@vertsCount?5?$DO?50?$AA@ 0000000180079fd8     InflationConvexHullLib.obj
 0002:00003ff0       ??_C@_07NOGJGPFL@hullOut?$AA@ 0000000180079ff0     InflationConvexHullLib.obj
 0002:00004000       ??_C@_0BP@CHBBDLNJ@k?$DN?$DNhullOut?9?$DOgetFacets?$CI?$CJ?4size?$CI?$CJ?$AA@ 000000018007a000     InflationConvexHullLib.obj
 0002:00004028       ??_C@_01PFHFFBPC@t?$AA@    000000018007a028     InflationConvexHullLib.obj
 0002:00004030       ??_C@_09MDBCJDMM@t?9?$DOvmax?$DM0?$AA@ 000000018007a030     InflationConvexHullLib.obj
 0002:00004040       ??_C@_0BF@IMOCMGBM@?$CBisextreme?$FLPxU32?$CIv?$CJ?$FN?$AA@ 000000018007a040     InflationConvexHullLib.obj
 0002:0000405c       ??_C@_02BFDMMJOC@nb?$AA@   000000018007a05c     InflationConvexHullLib.obj
 0002:00004060       ??_C@_0BA@PCPCGFGE@?$CBhasVert?$CI?$CKnb?0v?$CJ?$AA@ 000000018007a060     InflationConvexHullLib.obj
 0002:00004078       ??_C@_0BA@MEBKEMOG@PxU32?$CInb?9?$DOid?$CJ?$DMj?$AA@ 000000018007a078     InflationConvexHullLib.obj
 0002:00004090       ??_C@_0CM@DGNHBGHH@expandPlane?4mPlane?4distance?$CIvert@ 000000018007a090     InflationConvexHullLib.obj
 0002:000040c8       ??_C@_0CA@HIOFHKC@expandPlane?4mAdjacency?$FL0?$FN?5?$DN?$DN?5?91?$AA@ 000000018007a0c8     InflationConvexHullLib.obj
 0002:000040f0       ??_C@_0CA@BAPFEDOB@expandPlane?4mAdjacency?$FL1?$FN?5?$DN?$DN?5?91?$AA@ 000000018007a0f0     InflationConvexHullLib.obj
 0002:00004118       ??_C@_0CA@CJHIHPCE@expandPlane?4mAdjacency?$FL2?$FN?5?$DN?$DN?5?91?$AA@ 000000018007a118     InflationConvexHullLib.obj
 0002:00004140       ??_C@_0DA@LPEBNKFH@LocalTests?3?3PlaneCheck?$CIverts?0ver@ 000000018007a140     InflationConvexHullLib.obj
 0002:00004180       ??_C@_0N@EJENLPBA@indexE?5?$CB?$DN?5?91?$AA@ 000000018007a180     InflationConvexHullLib.obj
 0002:00004190       ??_C@_0CA@KDJNIAHF@c?9?$DOassertIntact?$CIplaneTolerance?$CJ?$AA@ 000000018007a190     InflationConvexHullLib.obj
 0002:000041b8       ??_C@_0CC@HJJJAIHF@c?9?$DOassertIntact?$CIplanetestepsilon@ 000000018007a1b8     InflationConvexHullLib.obj
 0002:000041e0       ??_C@_09KBFPFCOF@mFinished?$AA@ 000000018007a1e0     InflationConvexHullLib.obj
 0002:000041ec       __real@1e3ce508            000000018007a1ec     InflationConvexHullLib.obj
 0002:000041f0       __real@3ccccccd            000000018007a1f0     InflationConvexHullLib.obj
 0002:000041f4       __real@40800000            000000018007a1f4     InflationConvexHullLib.obj
 0002:000041f8       __real@40a00000            000000018007a1f8     InflationConvexHullLib.obj
 0002:000041fc       __real@42340000            000000018007a1fc     InflationConvexHullLib.obj
 0002:00004200       __real@43b40000            000000018007a200     InflationConvexHullLib.obj
 0002:00004204       __real@9e3ce508            000000018007a204     InflationConvexHullLib.obj
 0002:00004208       __real@bc23d70a            000000018007a208     InflationConvexHullLib.obj
 0002:0000420c       __real@bca3d70a            000000018007a20c     InflationConvexHullLib.obj
 0002:00004210       ??_7QuickHullConvexHullLib@physx@@6B@ 000000018007a210     QuickHullConvexHullLib.obj
 0002:00004238       ??_C@_0DJ@OGDLNGCN@?4?4?2?4?4?2PhysXCooking?2src?2convex?2Qu@ 000000018007a238     QuickHullConvexHullLib.obj
 0002:0000427c       ??_C@_04HPBPGAEO@twin?$AA@ 000000018007a27c     QuickHullConvexHullLib.obj
 0002:00004284       ??_C@_04IJFJNCMM@edge?$AA@ 000000018007a284     QuickHullConvexHullLib.obj
 0002:00004290       ??_C@_09CKAEOABB@startEdge?$AA@ 000000018007a290     QuickHullConvexHullLib.obj
 0002:0000429c       ??_C@_04POCOPAPC@face?$AA@ 000000018007a29c     QuickHullConvexHullLib.obj
 0002:000042a8       ??_C@_0BH@KGKKNPGB@checkFaceConsistency?$CI?$CJ?$AA@ 000000018007a2a8     QuickHullConvexHullLib.obj
 0002:000042c8       ??_C@_08FKPFFPGN@numv?5?$DO?52?$AA@ 000000018007a2c8     QuickHullConvexHullLib.obj
 0002:000042d8       ??_C@_0BB@NPIGJJFH@hedgeOpp?5?$CB?$DN?5NULL?$AA@ 000000018007a2d8     QuickHullConvexHullLib.obj
 0002:000042f0       ??_C@_0BI@NAILLODC@hedgeOpp?9?$DOtwin?5?$DN?$DN?5hedge?$AA@ 000000018007a2f0     QuickHullConvexHullLib.obj
 0002:00004310       ??_C@_0BA@FPNCCKDI@oppFace?5?$CB?$DN?5NULL?$AA@ 000000018007a310     QuickHullConvexHullLib.obj
 0002:00004328       ??_C@_0CK@HJJJCJME@oppFace?9?$DOstate?5?$CB?$DN?5QuickHullFace?3@ 000000018007a328     QuickHullConvexHullLib.obj
 0002:00004360       ??_C@_0BE@PPJFDAEE@hedge?9?$DOface?5?$DN?$DN?5this?$AA@ 000000018007a360     QuickHullConvexHullLib.obj
 0002:00004378       ??_C@_0BA@IIKLDFLI@numVertices?5?$DO?50?$AA@ 000000018007a378     QuickHullConvexHullLib.obj
 0002:00004390       ??_C@_0BA@BPKNMKIA@QuickHullVertex?$AA@ 000000018007a390     QuickHullConvexHullLib.obj
 0002:000043a8       ??_C@_0BJ@FCCFKLOA@numVerts?5?$DM?$DN?5mMaxVertices?$AA@ 000000018007a3a8     QuickHullConvexHullLib.obj
 0002:000043d0       ??_C@_0GA@EPPAEJPM@QuickHullConvexHullLib?3?3findSimp@ 000000018007a3d0     QuickHullConvexHullLib.obj
 0002:00004450       ??_C@_0FB@NEBIJMML@QuickHullConvexHullLib?3?3findSimp@ 000000018007a450     QuickHullConvexHullLib.obj
 0002:000044c0       ??_C@_0FB@CLLCBEMM@QuickHullConvexHullLib?3?3findSimp@ 000000018007a4c0     QuickHullConvexHullLib.obj
 0002:00004528       ??_C@_07DDJOPBBG@simplex?$AA@ 000000018007a528     QuickHullConvexHullLib.obj
 0002:00004538       ??_C@_0BC@EMKMAMDK@face?4conflictList?$AA@ 000000018007a538     QuickHullConvexHullLib.obj
 0002:00004550       ??_C@_0BM@MDABMKAO@face?4conflictList?5?$DN?$DN?5vertex?$AA@ 000000018007a550     QuickHullConvexHullLib.obj
 0002:00004578       ??_C@_0BM@KELCFLC@face?4checkFaceConsistency?$CI?$CJ?$AA@ 000000018007a578     QuickHullConvexHullLib.obj
 0002:000045a0       ??_C@_07CFCNFCEM@eyeFace?$AA@ 000000018007a5a0     QuickHullConvexHullLib.obj
 0002:000045b0       ??_C@_0L@EIPELJHI@mQuickHull?$AA@ 000000018007a5b0     QuickHullConvexHullLib.obj
 0002:000045c0       ??_C@_0CI@BFGCKDAG@face?4index?5?$DN?$DN?5expandPoint?4planeI@ 000000018007a5c0     QuickHullConvexHullLib.obj
 0002:000045f0       ??_C@_0CC@DCDPKPID@?$CKoutHullDataFacesByEdges8?5?$DN?$DN?5NUL@ 000000018007a5f0     QuickHullConvexHullLib.obj
 0002:00004618       ??_C@_0BC@EMEFDIJK@?$CKoutEdges?5?$DN?$DN?5NULL?$AA@ 000000018007a618     QuickHullConvexHullLib.obj
 0002:00004630       ??_C@_0BH@CPAKOOBA@?$CKoutEdgeData16?5?$DN?$DN?5NULL?$AA@ 000000018007a630     QuickHullConvexHullLib.obj
 0002:00004650       ??_C@_0CN@JGCPHPKN@face?4state?5?$DN?$DN?5local?3?3QuickHullFa@ 000000018007a650     QuickHullConvexHullLib.obj
 0002:00004688       ??_C@_0P@OFIBMBPE@ConvexMeshDesc?$AA@ 000000018007a688     QuickHullConvexHullLib.obj
 0002:000046a0       ??_C@_0CJ@ICHEGJCB@mQuickHull?9?$DOmNumHullFaces?5?$DN?$DN?5num@ 000000018007a6a0     QuickHullConvexHullLib.obj
 0002:000046d8       ??_C@_0BC@NAPMPBH@mCropedConvexHull?$AA@ 000000018007a6d8     QuickHullConvexHullLib.obj
 0002:000046f0       ??_C@_0CL@BEOIBIJC@k?5?$DN?$DN?5mCropedConvexHull?9?$DOgetFacet@ 000000018007a6f0     QuickHullConvexHullLib.obj
 0002:00004728       ??_C@_0BB@PMGJMJHA@mPreallocateSize?$AA@ 000000018007a728     QuickHullConvexHullLib.obj
 0002:00004740       ??_C@_0BD@NDHBJDBB@Quickhull?5MemBlock?$AA@ 000000018007a740     QuickHullConvexHullLib.obj
 0002:00004758       ??_C@_0BH@IGECNJKJ@block?5?$DM?$DN?5mCurrentBlock?$AA@ 000000018007a758     QuickHullConvexHullLib.obj
 0002:00004778       ??_C@_0BN@MOAOIDAG@itemIndex?5?$DM?5mPreallocateSize?$AA@ 000000018007a778     QuickHullConvexHullLib.obj
 0002:000047a0       ??_C@_0BA@KPFJPMPJ@preallocateSize?$AA@ 000000018007a7a0     QuickHullConvexHullLib.obj
 0002:000047b4       __real@34c00000            000000018007a7b4     QuickHullConvexHullLib.obj
 0002:000047b8       __real@42c80000            000000018007a7b8     QuickHullConvexHullLib.obj
 0002:000047e8       ??_C@_0DE@LLGKNBK@?4?4?2?4?4?2PhysXCooking?2src?2convex?2Vo@ 000000018007a7e8     VolumeIntegration.obj
 0002:00004828       ??_C@_0M@JAODDECG@nbVerts?5?$DO?52?$AA@ 000000018007a828     VolumeIntegration.obj
 0002:00004838       __real@3c088889            000000018007a838     VolumeIntegration.obj
 0002:0000483c       __real@3c888889            000000018007a83c     VolumeIntegration.obj
 0002:00004840       __real@3d2aaaab            000000018007a840     VolumeIntegration.obj
 0002:00004844       __real@3e2aaaab            000000018007a844     VolumeIntegration.obj
 0002:00004848       __real@3f81111111111111    000000018007a848     VolumeIntegration.obj
 0002:00004858       __real@3f91111111111111    000000018007a858     VolumeIntegration.obj
 0002:00004868       __real@3fa5555555555555    000000018007a868     VolumeIntegration.obj
 0002:00004878       __real@3fc5555555555555    000000018007a878     VolumeIntegration.obj
 0002:00004888       __real@3ff0000000000000    000000018007a888     VolumeIntegration.obj
 0002:00004898       __real@4000000000000000    000000018007a898     VolumeIntegration.obj
 0002:000048a8       __real@4008000000000000    000000018007a8a8     VolumeIntegration.obj
 0002:000048b8       __real@4010000000000000    000000018007a8b8     VolumeIntegration.obj
 0002:000048c8       __real@4018000000000000    000000018007a8c8     VolumeIntegration.obj
 0002:000048d8       __real@4028000000000000    000000018007a8d8     VolumeIntegration.obj
 0002:000048e8       __real@4034000000000000    000000018007a8e8     VolumeIntegration.obj
 0002:000048f8       __real@4038000000000000    000000018007a8f8     VolumeIntegration.obj
 0002:00004908       __real@404e000000000000    000000018007a908     VolumeIntegration.obj
 0002:00004918       __real@c018000000000000    000000018007a918     VolumeIntegration.obj
 0002:00004928       __real@c028000000000000    000000018007a928     VolumeIntegration.obj
 0002:00004938       __real@c034000000000000    000000018007a938     VolumeIntegration.obj
 0002:00004948       __real@c04e000000000000    000000018007a948     VolumeIntegration.obj
 0002:00004958       ??_C@_0DC@DMHHONHL@Adjacencies?3?3GetBoundaryVertices@ 000000018007a958     Adjacencies.obj
 0002:00004998       ??_C@_0CH@EOBHIJNK@?4?4?2?4?4?2PhysXCooking?2src?2Adjacenci@ 000000018007a998     Adjacencies.obj
 0002:000049c8       ??_C@_0CK@KKNAOLHI@Adjacencies?3?3MakeLastRef?3?5NULL?5p@ 000000018007a9c8     Adjacencies.obj
 0002:00004a00       ??_C@_0DA@FMEHLBKI@Adjacencies?3?3UpdateLink?3?5invalid@ 000000018007aa00     Adjacencies.obj
 0002:00004a40       ??_C@_0EA@CPHOACLK@Adjacencies?3?3CreateDatabase?3?5can@ 000000018007aa40     Adjacencies.obj
 0002:00004a90       ??_C@_0BE@LIEIDFLP@NbEdges?$DN?$DNmNbFaces?$CK3?$AA@ 000000018007aa90     Adjacencies.obj
 0002:00004ab0       ??_C@_0JH@OAGDEHEP@?$CIGu?3?3EdgeTriangleAC?3?3HasActiveEd@ 000000018007aab0     Adjacencies.obj
 0002:00004b70       ??_C@_0JH@GOIKPHAD@?$CIGu?3?3EdgeTriangleAC?3?3HasActiveEd@ 000000018007ab70     Adjacencies.obj
 0002:00004c30       ??_C@_0JH@OMLLOEFP@?$CIGu?3?3EdgeTriangleAC?3?3HasActiveEd@ 000000018007ac30     Adjacencies.obj
 0002:00004d18       ??_7PxCooking@physx@@6B@   000000018007ad18     Cooking.obj
 0002:00004da0       ??_7Cooking@physx@@6B@     000000018007ada0     Cooking.obj
 0002:00004e30       ??_C@_0FC@PJIHAFK@Cooking?3?3validateTriangleMesh?3?5u@ 000000018007ae30     Cooking.obj
 0002:00004e98       ??_C@_0CD@HPMFPCAJ@?4?4?2?4?4?2PhysXCooking?2src?2Cooking?4c@ 000000018007ae98     Cooking.obj
 0002:00004ed0       ??_C@_0EK@EKAIJEBL@Cooking?3?3cookConvexMesh?3?5user?9pr@ 000000018007aed0     Cooking.obj
 0002:00004f30       ??_C@_0FA@GFFGAPML@Cooking?3?3cookConvexMesh?3?5provide@ 000000018007af30     Cooking.obj
 0002:00004f90       ??_C@_0EP@PKDCPNNO@Cooking?3?3cookConvexMesh?3?5provide@ 000000018007af90     Cooking.obj
 0002:00004ff0       ??_C@_07MFHICPHG@hullLib?$AA@ 000000018007aff0     Cooking.obj
 0002:00005000       ??_C@_0EO@LKFMMDE@Cooking?3?3cookConvexMesh?3?5user?9pr@ 000000018007b000     Cooking.obj
 0002:00005060       ??_C@_0EN@FCEPCAFC@Cooking?3?3createHeightField?3?5user@ 000000018007b060     Cooking.obj
 0002:000050c0       ??_C@_0EM@MHLLDEBI@static_cast?$DMPs?3?3Foundation?$CK?$DO?$CI?$CGfo@ 000000018007b0c0     Cooking.obj
 0002:00005120       ??_C@_0CI@LKCEKHOD@?4?4?2?4?4?2PhysXCooking?2src?2CookingUt@ 000000018007b120     CookingUtils.obj
 0002:00005150       ??_C@_08MOINBLFP@EdgeData?$AA@ 000000018007b150     EdgeList.obj
 0002:00005160       ??_C@_0CE@DNAJJHLF@?4?4?2?4?4?2PhysXCooking?2src?2EdgeList?4@ 000000018007b160     EdgeList.obj
 0002:00005190       ??_C@_0BB@OMGANHJB@EdgeTriangleData?$AA@ 000000018007b190     EdgeList.obj
 0002:000051a8       ??_C@_0N@HMDODPCO@EdgeDescData?$AA@ 000000018007b1a8     EdgeList.obj
 0002:000051b8       ??_C@_0BG@GLJDPFLF@EdgeList?5FacesByEdges?$AA@ 000000018007b1b8     EdgeList.obj
 0002:000051d8       ??_C@_0CO@GBNJFPN@EdgeList?3?3CreateFacesToEdges?3?5NU@ 000000018007b1d8     EdgeList.obj
 0002:00005210       ??_C@_0BN@EPPJDECF@EdgeListBuilder?5FacesByEdges?$AA@ 000000018007b210     EdgeList.obj
 0002:00005238       ??_C@_0CO@EHJBBMNK@EdgeList?3?3ComputeActiveEdges?3?5NU@ 000000018007b238     EdgeList.obj
 0002:00005270       ??_C@_0DI@GBHLFOFP@ActiveEdges?3?3ComputeConvexEdges?3@ 000000018007b270     EdgeList.obj
 0002:000052b8       ??_C@_0DM@JOGBLHDI@ActiveEdges?3?3ComputeConvexEdges?3@ 000000018007b2b8     EdgeList.obj
 0002:00005300       ??_C@_0ED@FEMJKPEL@ActiveEdges?3?3ComputeConvexEdges?3@ 000000018007b300     EdgeList.obj
 0002:00005350       ??_C@_0EB@BFDPMFCD@ActiveEdges?3?3ComputeConvexEdges?3@ 000000018007b350     EdgeList.obj
 0002:000053a0       ??_C@_04DDKJGDCM@bool?$AA@ 000000018007b3a0     EdgeList.obj
 0002:000053a8       ??_C@_06FCDOAHIN@wfaces?$AA@ 000000018007b3a8     EdgeList.obj
 0002:000053b0       ??_C@_0BB@KCPJALAK@dfaces?5?$HM?$HM?5wfaces?$AA@ 000000018007b3b0     EdgeList.obj
 0002:000053c4       ??_C@_04CJNNGFMA@j?$DN?$DN2?$AA@ 000000018007b3c4     EdgeList.obj
 0002:000053cc       __real@bf7fbe77            000000018007b3cc     EdgeList.obj
 0002:000053d0       ??_C@_0M@GOCDBJNH@MeshCleaner?$AA@ 000000018007b3d0     MeshCleaner.obj
 0002:000053e0       ??_C@_0CH@GLEMKEIO@?4?4?2?4?4?2PhysXCooking?2src?2MeshClean@ 000000018007b3e0     MeshCleaner.obj
 0002:00005410       ??_C@_0L@FKHAJINL@cleanVerts?$AA@ 000000018007b410     MeshCleaner.obj
 0002:00005420       ??_C@_09PEPOFECJ@hashTable?$AA@ 000000018007b420     MeshCleaner.obj
 0002:00005430       ??_C@_0BB@EKDFPEDB@nbCleanedTris?$DM?$DNi?$AA@ 000000018007b430     MeshCleaner.obj
 0002:00005448       ??_7Quantizer@physx@@6B@   000000018007b448     Quantizer.obj
 0002:00005478       ??_7QuantizerImpl@@6B@     000000018007b478     Quantizer.obj
 0002:000054a8       ??_C@_0CF@HCNLDLHG@?4?4?2?4?4?2PhysXCooking?2src?2Quantizer@ 000000018007b4a8     Quantizer.obj
 0002:000054d8       ??_C@_0BD@IDLOIMGI@index?5?$DM?5inputCount?$AA@ 000000018007b4d8     Quantizer.obj
 0002:000054f0       __real@38d1b717            000000018007b4f0     Quantizer.obj
 0002:000054f4       __real@3f8020c5            000000018007b4f4     Quantizer.obj
 0002:00005500       __sz_PxFoundationDEBUG_x64_dll 000000018007b500     PxFoundationDEBUG_x64:PxFoundationDEBUG_x64.dll
 0002:00005520       __sz_PhysX3CommonDEBUG_x64_dll 000000018007b520     PhysX3CommonDEBUG_x64:PhysX3CommonDEBUG_x64.dll
 0002:00005540       ??_C@_1BK@DBDEIDLH@?$AAK?$AAE?$AAR?$AAN?$AAE?$AAL?$AA3?$AA2?$AA?4?$AAD?$AAL?$AAL?$AA?$AA@ 000000018007b540     delayimp:delayhlp.obj
 0002:00005560       ??_C@_0BI@OMNLIJDB@AcquireSRWLockExclusive?$AA@ 000000018007b560     delayimp:delayhlp.obj
 0002:00005580       ??_C@_0BI@HMIEPCNJ@ReleaseSRWLockExclusive?$AA@ 000000018007b580     delayimp:delayhlp.obj
 0002:000055a0       __pfnDliFailureHook2       000000018007b5a0     delayimp:delayhk1.obj
 0002:000055b8       ??_7type_info@@6B@         000000018007b5b8     MSVCRTD:std_type_info_static.obj
 0002:000055c8       _pRawDllMain               000000018007b5c8     MSVCRTD:dll_dllmain.obj
 0002:000055c8       _pDefaultRawDllMain        000000018007b5c8     MSVCRTD:dll_dllmain.obj
 0002:000055e0       _load_config_used          000000018007b5e0     MSVCRTD:loadcfg.obj
 0002:00005740       ??_C@_0BJ@HEGAHDFO@Stack?5pointer?5corruption?$AA@ 000000018007b740     MSVCRTD:_userapi_.obj
 0002:00005760       ??_C@_0CK@FEGOIOPB@Cast?5to?5smaller?5type?5causing?5los@ 000000018007b760     MSVCRTD:_userapi_.obj
 0002:00005798       ??_C@_0BI@CIGMDCBH@Stack?5memory?5corruption?$AA@ 000000018007b798     MSVCRTD:_userapi_.obj
 0002:000057b8       ??_C@_0CK@CNLNOEPB@Local?5variable?5used?5before?5initi@ 000000018007b7b8     MSVCRTD:_userapi_.obj
 0002:000057f0       ??_C@_0BP@OGBCLIBO@Stack?5around?5_alloca?5corrupted?$AA@ 000000018007b7f0     MSVCRTD:_userapi_.obj
 0002:00005900       ??_C@_0NN@NGPKDKPD@The?5value?5of?5ESP?5was?5not?5properl@ 000000018007b900     MSVCRTD:_error_.obj
 0002:00005a10       ??_C@_0BBN@GPMLNJCF@A?5cast?5to?5a?5smaller?5data?5type?5ha@ 000000018007ba10     MSVCRTD:_error_.obj
 0002:00005b68       ??_C@_0BN@FFOINMNJ@Stack?5memory?5was?5corrupted?6?$AN?$AA@ 000000018007bb68     MSVCRTD:_error_.obj
 0002:00005b90       ??_C@_0DG@HKJMLLLP@A?5local?5variable?5was?5used?5before@ 000000018007bb90     MSVCRTD:_error_.obj
 0002:00005bd0       ??_C@_0CM@NGINOKPC@Stack?5memory?5around?5_alloca?5was?5@ 000000018007bbd0     MSVCRTD:_error_.obj
 0002:00005c08       ??_C@_0BO@GNIAFIKK@Unknown?5Runtime?5Check?5Error?6?$AN?$AA@ 000000018007bc08     MSVCRTD:_error_.obj
 0002:00005c30       ??_C@_1GM@OLMCBDMB@?$AAR?$AAu?$AAn?$AAt?$AAi?$AAm?$AAe?$AA?5?$AAC?$AAh?$AAe?$AAc?$AAk?$AA?5?$AAE?$AAr?$AAr?$AAo?$AAr?$AA?4?$AA?6?$AA?$AN?$AA?5?$AAU?$AAn?$AAa?$AAb?$AAl?$AAe?$AA?5?$AAt?$AAo@ 000000018007bc30     MSVCRTD:_error_.obj
 0002:00005cc0       ??_C@_1EA@NFKNIFJP@?$AAR?$AAu?$AAn?$AA?9?$AAT?$AAi?$AAm?$AAe?$AA?5?$AAC?$AAh?$AAe?$AAc?$AAk?$AA?5?$AAF?$AAa?$AAi?$AAl?$AAu?$AAr?$AAe?$AA?5?$AA?$CD?$AA?$CF?$AAd?$AA?5?$AA?9?$AA?5?$AA?$CF?$AAs?$AA?$AA@ 000000018007bcc0     MSVCRTD:_error_.obj
 0002:00005d10       ??_C@_0BB@PFFGGCJP@Unknown?5Filename?$AA@ 000000018007bd10     MSVCRTD:_error_.obj
 0002:00005d28       ??_C@_0BE@GNBOBNCK@Unknown?5Module?5Name?$AA@ 000000018007bd28     MSVCRTD:_error_.obj
 0002:00005d40       ??_C@_0CA@IODNCDPG@Run?9Time?5Check?5Failure?5?$CD?$CFd?5?9?5?$CFs?$AA@ 000000018007bd40     MSVCRTD:_error_.obj
 0002:00005d68       ??_C@_0CG@IAFNJNEE@Stack?5corrupted?5near?5unknown?5var@ 000000018007bd68     MSVCRTD:_error_.obj
 0002:00005d98       ??_C@_05MKKEDADM@?$CF?42X?5?$AA@ 000000018007bd98     MSVCRTD:_error_.obj
 0002:00005da0       ??_C@_0EJ@LJKNEOLN@Stack?5area?5around?5_alloca?5memory@ 000000018007bda0     MSVCRTD:_error_.obj
 0002:00005df8       ??_C@_01EEMJAFIK@?6?$AA@   000000018007bdf8     MSVCRTD:_error_.obj
 0002:00005dfc       ??_C@_02LLMPMKNF@?$DO?5?$AA@ 000000018007bdfc     MSVCRTD:_error_.obj
 0002:00005e00       ??_C@_08OMAHNMHJ@?6Data?3?5?$DM?$AA@ 000000018007be00     MSVCRTD:_error_.obj
 0002:00005e10       ??_C@_0CK@DKGBICFE@?6Allocation?5number?5within?5this?5f@ 000000018007be10     MSVCRTD:_error_.obj
 0002:00005e48       ??_C@_07DFDJCKFN@?6Size?3?5?$AA@ 000000018007be48     MSVCRTD:_error_.obj
 0002:00005e58       ??_C@_0N@MHFFIMFG@?6Address?3?50x?$AA@ 000000018007be58     MSVCRTD:_error_.obj
 0002:00005e70       ??_C@_0EI@CLEPFNGI@Stack?5area?5around?5_alloca?5memory@ 000000018007be70     MSVCRTD:_error_.obj
 0002:00005ec8       ??_C@_0BK@ODNDAGKB@?$CFs?$CFs?$CFp?$CFs?$CFzd?$CFs?$CFd?$CFs?$CFs?$CFs?$CFs?$CFs?$AA@ 000000018007bec8     MSVCRTD:_error_.obj
 0002:00005ee8       ??_C@_0DE@OHJBPMBP@A?5variable?5is?5being?5used?5without@ 000000018007bee8     MSVCRTD:_error_.obj
 0002:00005f30       ??_7exception@std@@6B@     000000018007bf30     MSVCRTD:throw_bad_alloc.obj
 0002:00005f48       ??_C@_0BC@EOODALEL@Unknown?5exception?$AA@ 000000018007bf48     MSVCRTD:throw_bad_alloc.obj
 0002:00005f68       ??_7bad_alloc@std@@6B@     000000018007bf68     MSVCRTD:throw_bad_alloc.obj
 0002:00005f80       ??_C@_0P@GHFPNOJB@bad?5allocation?$AA@ 000000018007bf80     MSVCRTD:throw_bad_alloc.obj
 0002:00005fa0       ??_7bad_array_new_length@std@@6B@ 000000018007bfa0     MSVCRTD:throw_bad_alloc.obj
 0002:00005fb8       ??_C@_0BF@KINCDENJ@bad?5array?5new?5length?$AA@ 000000018007bfb8     MSVCRTD:throw_bad_alloc.obj
 0002:00006040       ??_C@_1EI@MLPKHBGE@?$AAa?$AAp?$AAi?$AA?9?$AAm?$AAs?$AA?9?$AAw?$AAi?$AAn?$AA?9?$AAc?$AAo?$AAr?$AAe?$AA?9?$AAr?$AAe?$AAg?$AAi?$AAs?$AAt?$AAr?$AAy?$AA?9?$AAl?$AA1?$AA?9?$AA1?$AA?9?$AA0?$AA?4@ 000000018007c040     MSVCRTD:_pdblkup_.obj
 0002:00006098       ??_C@_1BK@JHLNAEJL@?$AAa?$AAd?$AAv?$AAa?$AAp?$AAi?$AA3?$AA2?$AA?4?$AAd?$AAl?$AAl?$AA?$AA@ 000000018007c098     MSVCRTD:_pdblkup_.obj
 0002:000060b8       ??_C@_0O@COHOBMLB@RegOpenKeyExW?$AA@ 000000018007c0b8     MSVCRTD:_pdblkup_.obj
 0002:000060c8       ??_C@_0BB@GLNAEDBD@RegQueryValueExW?$AA@ 000000018007c0c8     MSVCRTD:_pdblkup_.obj
 0002:000060e0       ??_C@_0M@HLOHPNFA@RegCloseKey?$AA@ 000000018007c0e0     MSVCRTD:_pdblkup_.obj
 0002:000060f0       ??_C@_1HE@EBEAGLFB@?$AAS?$AAO?$AAF?$AAT?$AAW?$AAA?$AAR?$AAE?$AA?2?$AAW?$AAo?$AAw?$AA6?$AA4?$AA3?$AA2?$AAN?$AAo?$AAd?$AAe?$AA?2?$AAM?$AAi?$AAc?$AAr?$AAo?$AAs?$AAo?$AAf?$AAt?$AA?2?$AAV@ 000000018007c0f0     MSVCRTD:_pdblkup_.obj
 0002:00006180       ??_C@_1BG@EABPBLLF@?$AAP?$AAr?$AAo?$AAd?$AAu?$AAc?$AAt?$AAD?$AAi?$AAr?$AA?$AA@ 000000018007c180     MSVCRTD:_pdblkup_.obj
 0002:000061c8       ??_C@_1BC@JINFINNJ@?$AAM?$AAS?$AAP?$AAD?$AAB?$AA1?$AA4?$AA0?$AA?$AA@ 000000018007c1c8     MSVCRTD:_pdblkup_.obj
 0002:000061e0       ??_C@_0BB@KCIACLNC@PDBOpenValidate5?$AA@ 000000018007c1e0     MSVCRTD:_pdblkup_.obj
 0002:000061f4       ??_C@_01KDCPPGHE@r?$AA@    000000018007c1f4     MSVCRTD:_pdblkup_.obj
 0002:000065e0       ??_R4type_info@@6B@        000000018007c5e0     MSVCRTD:std_type_info_static.obj
 0002:00006610       ??_R3type_info@@8          000000018007c610     MSVCRTD:std_type_info_static.obj
 0002:00006628       ??_R2type_info@@8          000000018007c628     MSVCRTD:std_type_info_static.obj
 0002:00006638       ??_R1A@?0A@EA@type_info@@8 000000018007c638     MSVCRTD:std_type_info_static.obj
 0002:00006668       ??_R4exception@std@@6B@    000000018007c668     MSVCRTD:throw_bad_alloc.obj
 0002:00006698       ??_R3exception@std@@8      000000018007c698     MSVCRTD:throw_bad_alloc.obj
 0002:000066b0       ??_R2exception@std@@8      000000018007c6b0     MSVCRTD:throw_bad_alloc.obj
 0002:000066c0       ??_R1A@?0A@EA@exception@std@@8 000000018007c6c0     MSVCRTD:throw_bad_alloc.obj
 0002:000066f0       ??_R4bad_alloc@std@@6B@    000000018007c6f0     MSVCRTD:throw_bad_alloc.obj
 0002:00006720       ??_R3bad_alloc@std@@8      000000018007c720     MSVCRTD:throw_bad_alloc.obj
 0002:00006738       ??_R2bad_alloc@std@@8      000000018007c738     MSVCRTD:throw_bad_alloc.obj
 0002:00006750       ??_R1A@?0A@EA@bad_alloc@std@@8 000000018007c750     MSVCRTD:throw_bad_alloc.obj
 0002:00006780       ??_R4bad_array_new_length@std@@6B@ 000000018007c780     MSVCRTD:throw_bad_alloc.obj
 0002:000067b0       ??_R3bad_array_new_length@std@@8 000000018007c7b0     MSVCRTD:throw_bad_alloc.obj
 0002:000067c8       ??_R2bad_array_new_length@std@@8 000000018007c7c8     MSVCRTD:throw_bad_alloc.obj
 0002:000067f0       ??_R1A@?0A@EA@bad_array_new_length@std@@8 000000018007c7f0     MSVCRTD:throw_bad_alloc.obj
 0002:00006ae0       __rtc_iaa                  000000018007cae0     MSVCRTD:_initsect_.obj
 0002:00006e40       __rtc_izz                  000000018007ce40     MSVCRTD:_initsect_.obj
 0002:00006f50       __rtc_taa                  000000018007cf50     MSVCRTD:_initsect_.obj
 0002:000072b0       __rtc_tzz                  000000018007d2b0     MSVCRTD:_initsect_.obj
 0002:0000a1b0       _TI2?AVbad_alloc@std@@     00000001800801b0     MSVCRTD:throw_bad_alloc.obj
 0002:0000a1d0       _CTA2?AVbad_alloc@std@@    00000001800801d0     MSVCRTD:throw_bad_alloc.obj
 0002:0000a1e8       _CT??_R0?AVbad_alloc@std@@@8??0bad_alloc@std@@QEAA@AEBV01@@Z24 00000001800801e8     MSVCRTD:throw_bad_alloc.obj
 0002:0000a210       _CT??_R0?AVexception@std@@@8??0exception@std@@QEAA@AEBV01@@Z24 0000000180080210     MSVCRTD:throw_bad_alloc.obj
 0002:0000a238       _TI3?AVbad_array_new_length@std@@ 0000000180080238     MSVCRTD:throw_bad_alloc.obj
 0002:0000a258       _CTA3?AVbad_array_new_length@std@@ 0000000180080258     MSVCRTD:throw_bad_alloc.obj
 0002:0000a278       _CT??_R0?AVbad_array_new_length@std@@@8??0bad_array_new_length@std@@QEAA@AEBV01@@Z24 0000000180080278     MSVCRTD:throw_bad_alloc.obj
 0003:00000000       __pfnDliNotifyHook2        0000000180081000     WindowsCookingDelayLoadHook.obj
 0003:0000000c       ?er@?1??neib@Tri@local@@QEAAAEAHHH@Z@4HA 000000018008100c     InflationConvexHullLib.obj
 0003:00000010       _fltused                   0000000180081010     MSVCRTD:fltused.obj
 0003:00000020       __scrt_native_dllmain_reason 0000000180081020     MSVCRTD:utility.obj
 0003:00000030       __security_cookie_complement 0000000180081030     MSVCRTD:gs_cookie.obj
 0003:00000038       __security_cookie          0000000180081038     MSVCRTD:gs_cookie.obj
 0003:00000050       ?_RTC_ErrorLevels@@3PAHA   0000000180081050     MSVCRTD:_error_.obj
 0003:00000068       __isa_available            0000000180081068     MSVCRTD:_cpu_disp_.obj
 0003:0000006c       __isa_enabled              000000018008106c     MSVCRTD:_cpu_disp_.obj
 0003:00000070       __memcpy_nt_iters          0000000180081070     MSVCRTD:_cpu_disp_.obj
 0003:00000080       __scrt_ucrt_dll_is_in_use  0000000180081080     MSVCRTD:ucrt_stubs.obj
 0003:00000198       ??_R0?AVEdgeListBuilder@Gu@physx@@@8 0000000180081198     TriangleMeshBuilder.obj
 0003:000001d0       ??_R0?AVBV32Tree@Gu@physx@@@8 00000001800811d0     TriangleMeshBuilder.obj
 0003:00000200       ??_R0E@8                   0000000180081200     TriangleMeshBuilder.obj
 0003:00000218       ??_R0I@8                   0000000180081218     TriangleMeshBuilder.obj
 0003:00000230       ??_R0G@8                   0000000180081230     TriangleMeshBuilder.obj
 0003:00000248       ??_R0?AUValency@Gu@physx@@@8 0000000180081248     BigConvexDataBuilder.obj
 0003:00000278       ??_R0?AUEdgeDescData@Gu@physx@@@8 0000000180081278     ConvexHullBuilder.obj
 0003:000002b0       ??_R0_N@8                  00000001800812b0     ConvexHullBuilder.obj
 0003:000002c8       ??_R0?AVConvexHull@physx@@@8 00000001800812c8     ConvexHullUtils.obj
 0003:000002f8       ??_R0?AVBigConvexData@physx@@@8 00000001800812f8     ConvexMeshBuilder.obj
 0003:00000330       ??_R0?AUHullTriangleData@physx@@@8 0000000180081330     ConvexPolygonsBuilder.obj
 0003:00000368       ??_R0?AUPxHullPolygon@physx@@@8 0000000180081368     InflationConvexHullLib.obj
 0003:000003a0       ??_R0?AVTri@local@@@8      00000001800813a0     InflationConvexHullLib.obj
 0003:000003c8       ??_R0?AVQuickHull@local@@@8 00000001800813c8     QuickHullConvexHullLib.obj
 0003:000003f8       ??_R0?AVAdjEdge@@@8        00000001800813f8     Adjacencies.obj
 0003:00000420       ??_R0?AVAdjTriangle@physx@@@8 0000000180081420     Adjacencies.obj
 0003:00000450       ??_R0?AVHeightField@Gu@physx@@@8 0000000180081450     Cooking.obj
 0003:00000488       ??_R0?AVCooking@physx@@@8  0000000180081488     Cooking.obj
 0003:000004b8       ??_R0?AVQuickHullConvexHullLib@physx@@@8 00000001800814b8     Cooking.obj
 0003:000004f8       ??_R0?AVInflationConvexHullLib@physx@@@8 00000001800814f8     Cooking.obj
 0003:00000538       ??_R0M@8                   0000000180081538     CookingUtils.obj
 0003:00000550       ??_R0?AUEdgeData@Gu@physx@@@8 0000000180081550     EdgeList.obj
 0003:00000580       ??_R0?AUEdgeTriangleData@Gu@physx@@@8 0000000180081580     EdgeList.obj
 0003:000005c0       ??_R0?AVQuantizerImpl@@@8  00000001800815c0     Quantizer.obj
 0003:000005f0       ??_R0?AVtype_info@@@8      00000001800815f0     MSVCRTD:std_type_info_static.obj
 0003:00000618       ??_R0?AVbad_alloc@std@@@8  0000000180081618     MSVCRTD:throw_bad_alloc.obj
 0003:00000648       ??_R0?AVexception@std@@@8  0000000180081648     MSVCRTD:throw_bad_alloc.obj
 0003:00000678       ??_R0?AVbad_array_new_length@std@@@8 0000000180081678     MSVCRTD:throw_bad_alloc.obj
 0003:000007d9       ?_ignore@?2???APxVec3@physx@@QEBAAEBMI@Z@4_NA 00000001800817d9     HeightFieldCooking.obj
 0003:000007da       ?_ignore@?2??isInside@PxBounds3@physx@@QEBA_NAEBV23@@Z@4_NA 00000001800817da     RTreeCooking.obj
 0003:00000853       ?_ignore@?2??V4StoreA@aos@shdfnd@physx@@YAXT__m128@@PEAM@Z@4_NA 0000000180081853     RTreeCooking.obj
 0003:00000854       ?_ignore@?2??FStore@aos@shdfnd@physx@@YAXT__m128@@PEIAM@Z@4_NA 0000000180081854     RTreeCooking.obj
 0003:00000855       ?_ignore@?2??V3StoreA@aos@shdfnd@physx@@YAXT__m128@@AEAVPxVec3@4@@Z@4_NA 0000000180081855     RTreeCooking.obj
 0003:00000856       ?_ignore@?2??V3Splat@aos@shdfnd@physx@@YA?AT__m128@@T5@@Z@4_NA 0000000180081856     RTreeCooking.obj
 0003:00000857       ?_ignore@?2??V3Add@aos@shdfnd@physx@@YA?AT__m128@@T5@0@Z@4_NA 0000000180081857     RTreeCooking.obj
 0003:00000858       ?_ignore@?3??V3Add@aos@shdfnd@physx@@YA?AT__m128@@T5@0@Z@4_NA 0000000180081858     RTreeCooking.obj
 0003:00000859       ?_ignore@?2??V3Sub@aos@shdfnd@physx@@YA?AT__m128@@T5@0@Z@4_NA 0000000180081859     RTreeCooking.obj
 0003:0000085a       ?_ignore@?3??V3Sub@aos@shdfnd@physx@@YA?AT__m128@@T5@0@Z@4_NA 000000018008185a     RTreeCooking.obj
 0003:0000085b       ?_ignore@?2??V3Dot@aos@shdfnd@physx@@YA?AT__m128@@T5@0@Z@4_NA 000000018008185b     RTreeCooking.obj
 0003:0000085c       ?_ignore@?3??V3Dot@aos@shdfnd@physx@@YA?AT__m128@@T5@0@Z@4_NA 000000018008185c     RTreeCooking.obj
 0003:0000085d       ?_ignore@?2??V3Max@aos@shdfnd@physx@@YA?AT__m128@@T5@0@Z@4_NA 000000018008185d     RTreeCooking.obj
 0003:0000085e       ?_ignore@?3??V3Max@aos@shdfnd@physx@@YA?AT__m128@@T5@0@Z@4_NA 000000018008185e     RTreeCooking.obj
 0003:0000085f       ?_ignore@?2??V3Min@aos@shdfnd@physx@@YA?AT__m128@@T5@0@Z@4_NA 000000018008185f     RTreeCooking.obj
 0003:00000860       ?_ignore@?3??V3Min@aos@shdfnd@physx@@YA?AT__m128@@T5@0@Z@4_NA 0000000180081860     RTreeCooking.obj
 0003:00000861       ?_ignore@?2??V3PermZXY@aos@shdfnd@physx@@YA?AT__m128@@T5@@Z@4_NA 0000000180081861     RTreeCooking.obj
 0003:00000863       ?_ignore@?5??sort4@SubSortQuick@physx@@QEAAXPEIAIIAEAV?$Array@URTreeNodeNQ@physx@@VNamedAllocator@shdfnd@2@@shdfnd@3@AEAIAEAUPxBounds3V@3@I@Z@4_NA 0000000180081863     RTreeCooking.obj
 0003:00000864       ?_ignore@?6??sort4@SubSortQuick@physx@@QEAAXPEIAIIAEAV?$Array@URTreeNodeNQ@physx@@VNamedAllocator@shdfnd@2@@shdfnd@3@AEAIAEAUPxBounds3V@3@I@Z@4_NA 0000000180081864     RTreeCooking.obj
 0003:00000865       ?_ignore@?7??sort4@SubSortQuick@physx@@QEAAXPEIAIIAEAV?$Array@URTreeNodeNQ@physx@@VNamedAllocator@shdfnd@2@@shdfnd@3@AEAIAEAUPxBounds3V@3@I@Z@4_NA 0000000180081865     RTreeCooking.obj
 0003:00000866       ?_ignore@?8??sort4@SubSortQuick@physx@@QEAAXPEIAIIAEAV?$Array@URTreeNodeNQ@physx@@VNamedAllocator@shdfnd@2@@shdfnd@3@AEAIAEAUPxBounds3V@3@I@Z@4_NA 0000000180081866     RTreeCooking.obj
 0003:00000867       ?_ignore@?M@??sort4@SubSortQuick@physx@@QEAAXPEIAIIAEAV?$Array@URTreeNodeNQ@physx@@VNamedAllocator@shdfnd@2@@shdfnd@3@AEAIAEAUPxBounds3V@3@I@Z@4_NA 0000000180081867     RTreeCooking.obj
 0003:00000868       ?_ignore@?BH@??sort4@SubSortQuick@physx@@QEAAXPEIAIIAEAV?$Array@URTreeNodeNQ@physx@@VNamedAllocator@shdfnd@2@@shdfnd@3@AEAIAEAUPxBounds3V@3@I@Z@4_NA 0000000180081868     RTreeCooking.obj
 0003:00000869       ?_ignore@?6??split@SubSortSAH@physx@@QEAAIPEAII@Z@4_NA 0000000180081869     RTreeCooking.obj
 0003:0000086a       ?_ignore@?7??split@SubSortSAH@physx@@QEAAIPEAII@Z@4_NA 000000018008186a     RTreeCooking.obj
 0003:0000086b       ?_ignore@?8??split@SubSortSAH@physx@@QEAAIPEAII@Z@4_NA 000000018008186b     RTreeCooking.obj
 0003:0000086c       ?_ignore@?9??split@SubSortSAH@physx@@QEAAIPEAII@Z@4_NA 000000018008186c     RTreeCooking.obj
 0003:0000086d       ?_ignore@?L@??split@SubSortSAH@physx@@QEAAIPEAII@Z@4_NA 000000018008186d     RTreeCooking.obj
 0003:0000086e       ?_ignore@?BO@??split@SubSortSAH@physx@@QEAAIPEAII@Z@4_NA 000000018008186e     RTreeCooking.obj
 0003:0000086f       ?_ignore@?CB@??split@SubSortSAH@physx@@QEAAIPEAII@Z@4_NA 000000018008186f     RTreeCooking.obj
 0003:00000870       ?_ignore@?2??computeSA@SubSortSAH@physx@@QEAAMPEBIAEBUInterval@3@@Z@4_NA 0000000180081870     RTreeCooking.obj
 0003:00000871       ?_ignore@?BD@??sort4@SubSortSAH@physx@@QEAAXPEAIIAEAV?$Array@URTreeNodeNQ@physx@@VNamedAllocator@shdfnd@2@@shdfnd@3@AEAIIPEAURTreeNodeNQ@3@@Z@4_NA 0000000180081871     RTreeCooking.obj
 0003:00000872       ?_ignore@?BE@??sort4@SubSortSAH@physx@@QEAAXPEAIIAEAV?$Array@URTreeNodeNQ@physx@@VNamedAllocator@shdfnd@2@@shdfnd@3@AEAIIPEAURTreeNodeNQ@3@@Z@4_NA 0000000180081872     RTreeCooking.obj
 0003:00000873       ?_ignore@?BF@??sort4@SubSortSAH@physx@@QEAAXPEAIIAEAV?$Array@URTreeNodeNQ@physx@@VNamedAllocator@shdfnd@2@@shdfnd@3@AEAIIPEAURTreeNodeNQ@3@@Z@4_NA 0000000180081873     RTreeCooking.obj
 0003:00000874       ?_ignore@?BG@??sort4@SubSortSAH@physx@@QEAAXPEAIIAEAV?$Array@URTreeNodeNQ@physx@@VNamedAllocator@shdfnd@2@@shdfnd@3@AEAIIPEAURTreeNodeNQ@3@@Z@4_NA 0000000180081874     RTreeCooking.obj
 0003:00000875       ?_ignore@?BH@??sort4@SubSortSAH@physx@@QEAAXPEAIIAEAV?$Array@URTreeNodeNQ@physx@@VNamedAllocator@shdfnd@2@@shdfnd@3@AEAIIPEAURTreeNodeNQ@3@@Z@4_NA 0000000180081875     RTreeCooking.obj
 0003:00000876       ?_ignore@?BJ@??sort4@SubSortSAH@physx@@QEAAXPEAIIAEAV?$Array@URTreeNodeNQ@physx@@VNamedAllocator@shdfnd@2@@shdfnd@3@AEAIIPEAURTreeNodeNQ@3@@Z@4_NA 0000000180081876     RTreeCooking.obj
 0003:00000877       ?_ignore@?BP@??sort4@SubSortSAH@physx@@QEAAXPEAIIAEAV?$Array@URTreeNodeNQ@physx@@VNamedAllocator@shdfnd@2@@shdfnd@3@AEAIIPEAURTreeNodeNQ@3@@Z@4_NA 0000000180081877     RTreeCooking.obj
 0003:00000878       ?_ignore@?CA@??sort4@SubSortSAH@physx@@QEAAXPEAIIAEAV?$Array@URTreeNodeNQ@physx@@VNamedAllocator@shdfnd@2@@shdfnd@3@AEAIIPEAURTreeNodeNQ@3@@Z@4_NA 0000000180081878     RTreeCooking.obj
 0003:00000879       ?_ignore@?CB@??sort4@SubSortSAH@physx@@QEAAXPEAIIAEAV?$Array@URTreeNodeNQ@physx@@VNamedAllocator@shdfnd@2@@shdfnd@3@AEAIIPEAURTreeNodeNQ@3@@Z@4_NA 0000000180081879     RTreeCooking.obj
 0003:0000087a       ?_ignore@?CC@??sort4@SubSortSAH@physx@@QEAAXPEAIIAEAV?$Array@URTreeNodeNQ@physx@@VNamedAllocator@shdfnd@2@@shdfnd@3@AEAIIPEAURTreeNodeNQ@3@@Z@4_NA 000000018008187a     RTreeCooking.obj
 0003:0000087b       ?_ignore@?CD@??sort4@SubSortSAH@physx@@QEAAXPEAIIAEAV?$Array@URTreeNodeNQ@physx@@VNamedAllocator@shdfnd@2@@shdfnd@3@AEAIIPEAURTreeNodeNQ@3@@Z@4_NA 000000018008187b     RTreeCooking.obj
 0003:0000087c       ?_ignore@?DD@??sort4@SubSortSAH@physx@@QEAAXPEAIIAEAV?$Array@URTreeNodeNQ@physx@@VNamedAllocator@shdfnd@2@@shdfnd@3@AEAIIPEAURTreeNodeNQ@3@@Z@4_NA 000000018008187c     RTreeCooking.obj
 0003:0000087d       ?_ignore@?DI@??sort4@SubSortSAH@physx@@QEAAXPEAIIAEAV?$Array@URTreeNodeNQ@physx@@VNamedAllocator@shdfnd@2@@shdfnd@3@AEAIIPEAURTreeNodeNQ@3@@Z@4_NA 000000018008187d     RTreeCooking.obj
 0003:00000886       ?_ignore@?2???A?$Array@URTreeNodeQ@Gu@physx@@VNamedAllocator@shdfnd@3@@shdfnd@physx@@QEAAAEAURTreeNodeQ@Gu@3@I@Z@4_NA 0000000180081886     RTreeCooking.obj
 0003:00000887       ?_ignore@?2??replaceWithLast@?$Array@UInterval@physx@@V?$InlineAllocator@$0CA@VNamedAllocator@shdfnd@physx@@@shdfnd@2@@shdfnd@physx@@QEAAXI@Z@4_NA 0000000180081887     RTreeCooking.obj
 0003:00000888       ?_ignore@?2???A?$Array@UInterval@physx@@V?$InlineAllocator@$0CA@VNamedAllocator@shdfnd@physx@@@shdfnd@2@@shdfnd@physx@@QEAAAEAUInterval@3@I@Z@4_NA 0000000180081888     RTreeCooking.obj
 0003:00000889       ?_ignore@?2???A?$Array@URTreeNodeNQ@physx@@VNamedAllocator@shdfnd@2@@shdfnd@physx@@QEAAAEAURTreeNodeNQ@3@I@Z@4_NA 0000000180081889     RTreeCooking.obj
 0003:0000088a       ?_ignore@?2??popBack@?$Array@IVNamedAllocator@shdfnd@physx@@@shdfnd@physx@@QEAAIXZ@4_NA 000000018008188a     RTreeCooking.obj
 0003:0000088b       ?_ignore@?2???A?$Array@IVNamedAllocator@shdfnd@physx@@@shdfnd@physx@@QEAAAEAII@Z@4_NA 000000018008188b     RTreeCooking.obj
 0003:0000088c       ?_ignore@?2??grow@?$Array@URTreeNodeQ@Gu@physx@@VNamedAllocator@shdfnd@3@@shdfnd@physx@@IEAAXI@Z@4_NA 000000018008188c     RTreeCooking.obj
 0003:0000088d       ?_ignore@?2??grow@?$Array@URTreeNodeNQ@physx@@VNamedAllocator@shdfnd@2@@shdfnd@physx@@IEAAXI@Z@4_NA 000000018008188d     RTreeCooking.obj
 0003:0000088e       ?_ignore@?2??grow@?$Array@VPxVec3@physx@@VNamedAllocator@shdfnd@2@@shdfnd@physx@@IEAAXI@Z@4_NA 000000018008188e     RTreeCooking.obj
 0003:0000088f       ?_ignore@?2??grow@?$Array@UPxBounds3V@physx@@VNamedAllocator@shdfnd@2@@shdfnd@physx@@IEAAXI@Z@4_NA 000000018008188f     RTreeCooking.obj
 0003:00000890       ?_ignore@?2??grow@?$Array@IVNamedAllocator@shdfnd@physx@@@shdfnd@physx@@IEAAXI@Z@4_NA 0000000180081890     RTreeCooking.obj
 0003:00000891       ?_ignore@?2??growAndPushBack@?$Array@IVNamedAllocator@shdfnd@physx@@@shdfnd@physx@@IEAAAEAIAEBI@Z@4_NA 0000000180081891     RTreeCooking.obj
 0003:00000892       ?_ignore@?2??recreate@?$Array@IVNamedAllocator@shdfnd@physx@@@shdfnd@physx@@IEAAXI@Z@4_NA 0000000180081892     RTreeCooking.obj
 0003:00000893       ?_ignore@?2??growAndPushBack@?$Array@UPxBounds3V@physx@@VNamedAllocator@shdfnd@2@@shdfnd@physx@@IEAAAEAUPxBounds3V@4@AEBU54@@Z@4_NA 0000000180081893     RTreeCooking.obj
 0003:00000894       ?_ignore@?2??recreate@?$Array@UPxBounds3V@physx@@VNamedAllocator@shdfnd@2@@shdfnd@physx@@IEAAXI@Z@4_NA 0000000180081894     RTreeCooking.obj
 0003:00000895       ?_ignore@?2??growAndPushBack@?$Array@VPxVec3@physx@@VNamedAllocator@shdfnd@2@@shdfnd@physx@@IEAAAEAVPxVec3@4@AEBV54@@Z@4_NA 0000000180081895     RTreeCooking.obj
 0003:00000896       ?_ignore@?2??recreate@?$Array@VPxVec3@physx@@VNamedAllocator@shdfnd@2@@shdfnd@physx@@IEAAXI@Z@4_NA 0000000180081896     RTreeCooking.obj
 0003:00000897       ?_ignore@?2??growAndPushBack@?$Array@URTreeNodeNQ@physx@@VNamedAllocator@shdfnd@2@@shdfnd@physx@@IEAAAEAURTreeNodeNQ@4@AEBU54@@Z@4_NA 0000000180081897     RTreeCooking.obj
 0003:00000898       ?_ignore@?2??recreate@?$Array@URTreeNodeNQ@physx@@VNamedAllocator@shdfnd@2@@shdfnd@physx@@IEAAXI@Z@4_NA 0000000180081898     RTreeCooking.obj
 0003:00000899       ?_ignore@?2???$quickSelectFirstK@UBoundsLTE@physx@@@quickSelect@physx@@YAXPEIAIIIIAEBUBoundsLTE@2@@Z@4_NA 0000000180081899     RTreeCooking.obj
 0003:0000089a       ?_ignore@?M@???$quickSelectFirstK@UBoundsLTE@physx@@@quickSelect@physx@@YAXPEIAIIIIAEBUBoundsLTE@2@@Z@4_NA 000000018008189a     RTreeCooking.obj
 0003:0000089b       ?_ignore@?2??growAndPushBack@?$Array@UInterval@physx@@V?$InlineAllocator@$0CA@VNamedAllocator@shdfnd@physx@@@shdfnd@2@@shdfnd@physx@@IEAAAEAUInterval@4@AEBU54@@Z@4_NA 000000018008189b     RTreeCooking.obj
 0003:0000089c       ?_ignore@?2??growAndPushBack@?$Array@URTreeNodeQ@Gu@physx@@VNamedAllocator@shdfnd@3@@shdfnd@physx@@IEAAAEAURTreeNodeQ@Gu@4@AEBU564@@Z@4_NA 000000018008189c     RTreeCooking.obj
 0003:0000089d       ?_ignore@?2??recreate@?$Array@URTreeNodeQ@Gu@physx@@VNamedAllocator@shdfnd@3@@shdfnd@physx@@IEAAXI@Z@4_NA 000000018008189d     RTreeCooking.obj
 0003:0000089e       ?_ignore@?2???$partition@UBoundsLTE@physx@@@quickSelect@physx@@YAIPEIAIIIIAEBUBoundsLTE@2@@Z@4_NA 000000018008189e     RTreeCooking.obj
 0003:0000089f       ?_ignore@?M@???$partition@UBoundsLTE@physx@@@quickSelect@physx@@YAIPEIAIIIIAEBUBoundsLTE@2@@Z@4_NA 000000018008189f     RTreeCooking.obj
 0003:000008a0       ?_ignore@?O@???$partition@UBoundsLTE@physx@@@quickSelect@physx@@YAIPEIAIIIIAEBUBoundsLTE@2@@Z@4_NA 00000001800818a0     RTreeCooking.obj
 0003:000008a1       ?_ignore@?O@???$sort@IU?$Less@I@shdfnd@physx@@VNamedAllocator@23@@shdfnd@physx@@YAXPEAIIAEBU?$Less@I@12@AEBVNamedAllocator@12@I@Z@4_NA 00000001800818a1     RTreeCooking.obj
 0003:000008a2       ?_ignore@?BM@???$sort@IU?$Less@I@shdfnd@physx@@VNamedAllocator@23@@shdfnd@physx@@YAXPEAIIAEBU?$Less@I@12@AEBVNamedAllocator@12@I@Z@4_NA 00000001800818a2     RTreeCooking.obj
 0003:000008a3       ?_ignore@?O@???$sort@IUSortBoundsPredicate@physx@@VNamedAllocator@shdfnd@2@@shdfnd@physx@@YAXPEAIIAEBUSortBoundsPredicate@2@AEBVNamedAllocator@12@I@Z@4_NA 00000001800818a3     RTreeCooking.obj
 0003:000008a4       ?_ignore@?BM@???$sort@IUSortBoundsPredicate@physx@@VNamedAllocator@shdfnd@2@@shdfnd@physx@@YAXPEAIIAEBUSortBoundsPredicate@2@AEBVNamedAllocator@12@I@Z@4_NA 00000001800818a4     RTreeCooking.obj
 0003:000008a5       ?_ignore@?2??pop@?$Stack@VNamedAllocator@shdfnd@physx@@@internal@shdfnd@physx@@QEAAXAEAH0@Z@4_NA 00000001800818a5     RTreeCooking.obj
 0003:000008a6       ?_ignore@?8???$partition@I$$CBU?$Less@I@shdfnd@physx@@@internal@shdfnd@physx@@YAHPEAIHHAEBU?$Less@I@23@@Z@4_NA 00000001800818a6     RTreeCooking.obj
 0003:000008a7       ?_ignore@?9???$partition@I$$CBU?$Less@I@shdfnd@physx@@@internal@shdfnd@physx@@YAHPEAIHHAEBU?$Less@I@23@@Z@4_NA 00000001800818a7     RTreeCooking.obj
 0003:000008a8       ?_ignore@?8???$partition@I$$CBUSortBoundsPredicate@physx@@@internal@shdfnd@physx@@YAHPEAIHHAEBUSortBoundsPredicate@3@@Z@4_NA 00000001800818a8     RTreeCooking.obj
 0003:000008a9       ?_ignore@?9???$partition@I$$CBUSortBoundsPredicate@physx@@@internal@shdfnd@physx@@YAHPEAIHHAEBUSortBoundsPredicate@3@@Z@4_NA 00000001800818a9     RTreeCooking.obj
 0003:000008aa       ?_ignore@?2???APxVec3@physx@@QEAAAEAMI@Z@4_NA 00000001800818aa     TriangleMeshBuilder.obj
 0003:00000923       ?_ignore@?2??LeafSetData@Gu@physx@@YAIII@Z@4_NA 0000000180081923     TriangleMeshBuilder.obj
 0003:00000924       ?_ignore@?3??LeafSetData@Gu@physx@@YAIII@Z@4_NA 0000000180081924     TriangleMeshBuilder.obj
 0003:00000925       ?_ignore@?2??allocateVertices@TriangleMeshData@Gu@physx@@QEAAPEAVPxVec3@4@I@Z@4_NA 0000000180081925     TriangleMeshBuilder.obj
 0003:00000926       ?_ignore@?2??allocateTriangles@TriangleMeshData@Gu@physx@@QEAAPEAXI_NI@Z@4_NA 0000000180081926     TriangleMeshBuilder.obj
 0003:00000927       ?_ignore@?3??allocateTriangles@TriangleMeshData@Gu@physx@@QEAAPEAXI_NI@Z@4_NA 0000000180081927     TriangleMeshBuilder.obj
 0003:00000928       ?_ignore@?2??allocateMaterials@TriangleMeshData@Gu@physx@@QEAAPEAGXZ@4_NA 0000000180081928     TriangleMeshBuilder.obj
 0003:00000929       ?_ignore@?3??allocateMaterials@TriangleMeshData@Gu@physx@@QEAAPEAGXZ@4_NA 0000000180081929     TriangleMeshBuilder.obj
 0003:0000092a       ?_ignore@?2??setTriangleAdjacency@TriangleMeshData@Gu@physx@@QEAAXIII@Z@4_NA 000000018008192a     TriangleMeshBuilder.obj
 0003:0000092b       ?_ignore@?2??to16@shdfnd@physx@@YAGI@Z@4_NA 000000018008192b     TriangleMeshBuilder.obj
 0003:00000940       ?_ignore@?2??remap@RTreeCookerRemap@physx@@UEAAXPEAIII@Z@4_NA 0000000180081940     TriangleMeshBuilder.obj
 0003:00000941       ?_ignore@?3??remap@RTreeCookerRemap@physx@@UEAAXPEAIII@Z@4_NA 0000000180081941     TriangleMeshBuilder.obj
 0003:00000942       ?_ignore@?4??remap@RTreeCookerRemap@physx@@UEAAXPEAIII@Z@4_NA 0000000180081942     TriangleMeshBuilder.obj
 0003:00000943       ?_ignore@?5??remap@RTreeCookerRemap@physx@@UEAAXPEAIII@Z@4_NA 0000000180081943     TriangleMeshBuilder.obj
 0003:00000944       ?_ignore@?6??remap@RTreeCookerRemap@physx@@UEAAXPEAIII@Z@4_NA 0000000180081944     TriangleMeshBuilder.obj
 0003:00000946       ?_ignore@?2???A?$Array@USharpEdgeRange@GrbTrimeshCookerHelper@physx@@VNamedAllocator@shdfnd@3@@shdfnd@physx@@QEAAAEAUSharpEdgeRange@GrbTrimeshCookerHelper@3@I@Z@4_NA 0000000180081946     TriangleMeshBuilder.obj
 0003:00000947       ?_ignore@?2???A?$Array@USortedNeighbor@GrbTrimeshCookerHelper@physx@@VNamedAllocator@shdfnd@3@@shdfnd@physx@@QEAAAEAUSortedNeighbor@GrbTrimeshCookerHelper@3@I@Z@4_NA 0000000180081947     TriangleMeshBuilder.obj
 0003:00000948       ?_ignore@?2??growAndPushBack@?$Array@USortedNeighbor@GrbTrimeshCookerHelper@physx@@VNamedAllocator@shdfnd@3@@shdfnd@physx@@IEAAAEAUSortedNeighbor@GrbTrimeshCookerHelper@4@AEBU564@@Z@4_NA 0000000180081948     TriangleMeshBuilder.obj
 0003:00000949       ?_ignore@?2??grow@?$Array@USharpEdgeRange@GrbTrimeshCookerHelper@physx@@VNamedAllocator@shdfnd@3@@shdfnd@physx@@IEAAXI@Z@4_NA 0000000180081949     TriangleMeshBuilder.obj
 0003:0000094a       ?_ignore@?2??grow@?$Array@USortedNeighbor@GrbTrimeshCookerHelper@physx@@VNamedAllocator@shdfnd@3@@shdfnd@physx@@IEAAXI@Z@4_NA 000000018008194a     TriangleMeshBuilder.obj
 0003:0000094b       ?_ignore@?2??recreate@?$Array@USortedNeighbor@GrbTrimeshCookerHelper@physx@@VNamedAllocator@shdfnd@3@@shdfnd@physx@@IEAAXI@Z@4_NA 000000018008194b     TriangleMeshBuilder.obj
 0003:0000094c       ?_ignore@?2??recreate@?$Array@USharpEdgeRange@GrbTrimeshCookerHelper@physx@@VNamedAllocator@shdfnd@3@@shdfnd@physx@@IEAAXI@Z@4_NA 000000018008194c     TriangleMeshBuilder.obj
 0003:0000094d       ?_ignore@?O@???$sort@UEdgeTriLookup@physx@@U?$Less@UEdgeTriLookup@physx@@@shdfnd@2@VNamedAllocator@42@@shdfnd@physx@@YAXPEAUEdgeTriLookup@2@IAEBU?$Less@UEdgeTriLookup@physx@@@12@AEBVNamedAllocator@12@I@Z@4_NA 000000018008194d     TriangleMeshBuilder.obj
 0003:0000094e       ?_ignore@?BM@???$sort@UEdgeTriLookup@physx@@U?$Less@UEdgeTriLookup@physx@@@shdfnd@2@VNamedAllocator@42@@shdfnd@physx@@YAXPEAUEdgeTriLookup@2@IAEBU?$Less@UEdgeTriLookup@physx@@@12@AEBVNamedAllocator@12@I@Z@4_NA 000000018008194e     TriangleMeshBuilder.obj
 0003:0000094f       ?_ignore@?O@???$sort@USortedNeighbor@GrbTrimeshCookerHelper@physx@@U?$Less@USortedNeighbor@GrbTrimeshCookerHelper@physx@@@shdfnd@3@VNamedAllocator@53@@shdfnd@physx@@YAXPEAUSortedNeighbor@GrbTrimeshCookerHelper@2@IAEBU?$Less@USortedNeighbor@GrbTrimeshCookerHelper@physx@@@12@AEBVNamedAllocator@12@I@Z@4_NA 000000018008194f     TriangleMeshBuilder.obj
 0003:00000950       ?_ignore@?BM@???$sort@USortedNeighbor@GrbTrimeshCookerHelper@physx@@U?$Less@USortedNeighbor@GrbTrimeshCookerHelper@physx@@@shdfnd@3@VNamedAllocator@53@@shdfnd@physx@@YAXPEAUSortedNeighbor@GrbTrimeshCookerHelper@2@IAEBU?$Less@USortedNeighbor@GrbTrimeshCookerHelper@physx@@@12@AEBVNamedAllocator@12@I@Z@4_NA 0000000180081950     TriangleMeshBuilder.obj
 0003:00000951       ?_ignore@?8???$partition@UEdgeTriLookup@physx@@$$CBU?$Less@UEdgeTriLookup@physx@@@shdfnd@2@@internal@shdfnd@physx@@YAHPEAUEdgeTriLookup@3@HHAEBU?$Less@UEdgeTriLookup@physx@@@23@@Z@4_NA 0000000180081951     TriangleMeshBuilder.obj
 0003:00000952       ?_ignore@?9???$partition@UEdgeTriLookup@physx@@$$CBU?$Less@UEdgeTriLookup@physx@@@shdfnd@2@@internal@shdfnd@physx@@YAHPEAUEdgeTriLookup@3@HHAEBU?$Less@UEdgeTriLookup@physx@@@23@@Z@4_NA 0000000180081952     TriangleMeshBuilder.obj
 0003:00000953       ?_ignore@?8???$partition@USortedNeighbor@GrbTrimeshCookerHelper@physx@@$$CBU?$Less@USortedNeighbor@GrbTrimeshCookerHelper@physx@@@shdfnd@3@@internal@shdfnd@physx@@YAHPEAUSortedNeighbor@GrbTrimeshCookerHelper@3@HHAEBU?$Less@USortedNeighbor@GrbTrimeshCookerHelper@physx@@@23@@Z@4_NA 0000000180081953     TriangleMeshBuilder.obj
 0003:00000954       ?_ignore@?9???$partition@USortedNeighbor@GrbTrimeshCookerHelper@physx@@$$CBU?$Less@USortedNeighbor@GrbTrimeshCookerHelper@physx@@@shdfnd@3@@internal@shdfnd@physx@@YAHPEAUSortedNeighbor@GrbTrimeshCookerHelper@3@HHAEBU?$Less@USortedNeighbor@GrbTrimeshCookerHelper@physx@@@23@@Z@4_NA 0000000180081954     TriangleMeshBuilder.obj
 0003:000009d7       ?_ignore@?2??to8@shdfnd@physx@@YAEI@Z@4_NA 00000001800819d7     ConvexHullBuilder.obj
 0003:000009d8       ?_ignore@?2??computeNbPolygons@ConvexHullBuilder@physx@@QEBAIXZ@4_NA 00000001800819d8     ConvexHullBuilder.obj
 0003:00000a65       ?_ignore@?2??include@PxBounds3@physx@@QEAAXAEBVPxVec3@3@@Z@4_NA 0000000180081a65     ConvexHullLib.obj
 0003:00000a66       ?_ignore@?2??getCenter@PxBounds3@physx@@QEBA?AVPxVec3@3@XZ@4_NA 0000000180081a66     ConvexHullLib.obj
 0003:00000a67       ?_ignore@?2??getDimensions@PxBounds3@physx@@QEBA?AVPxVec3@3@XZ@4_NA 0000000180081a67     ConvexHullLib.obj
 0003:00000a6a       ?_ignore@?2???0PxQuat@physx@@QEAA@MAEBVPxVec3@2@@Z@4_NA 0000000180081a6a     ConvexHullUtils.obj
 0003:00000a6b       ?_ignore@?2??to8@shdfnd@physx@@YAEG@Z@4_NA 0000000180081a6b     ConvexHullUtils.obj
 0003:00000af6       ?_ignore@?2??FAdd@aos@shdfnd@physx@@YA?AT__m128@@T5@0@Z@4_NA 0000000180081af6     ConvexHullUtils.obj
 0003:00000af7       ?_ignore@?3??FAdd@aos@shdfnd@physx@@YA?AT__m128@@T5@0@Z@4_NA 0000000180081af7     ConvexHullUtils.obj
 0003:00000af8       ?_ignore@?2??FMul@aos@shdfnd@physx@@YA?AT__m128@@T5@0@Z@4_NA 0000000180081af8     ConvexHullUtils.obj
 0003:00000af9       ?_ignore@?3??FMul@aos@shdfnd@physx@@YA?AT__m128@@T5@0@Z@4_NA 0000000180081af9     ConvexHullUtils.obj
 0003:00000afa       ?_ignore@?2??FScaleAdd@aos@shdfnd@physx@@YA?AT__m128@@T5@00@Z@4_NA 0000000180081afa     ConvexHullUtils.obj
 0003:00000afb       ?_ignore@?3??FScaleAdd@aos@shdfnd@physx@@YA?AT__m128@@T5@00@Z@4_NA 0000000180081afb     ConvexHullUtils.obj
 0003:00000afc       ?_ignore@?4??FScaleAdd@aos@shdfnd@physx@@YA?AT__m128@@T5@00@Z@4_NA 0000000180081afc     ConvexHullUtils.obj
 0003:00000afd       ?_ignore@?2??V3Scale@aos@shdfnd@physx@@YA?AT__m128@@T5@0@Z@4_NA 0000000180081afd     ConvexHullUtils.obj
 0003:00000afe       ?_ignore@?3??V3Scale@aos@shdfnd@physx@@YA?AT__m128@@T5@0@Z@4_NA 0000000180081afe     ConvexHullUtils.obj
 0003:00000aff       ?_ignore@?2??V3ScaleAdd@aos@shdfnd@physx@@YA?AT__m128@@T5@00@Z@4_NA 0000000180081aff     ConvexHullUtils.obj
 0003:00000b00       ?_ignore@?3??V3ScaleAdd@aos@shdfnd@physx@@YA?AT__m128@@T5@00@Z@4_NA 0000000180081b00     ConvexHullUtils.obj
 0003:00000b01       ?_ignore@?4??V3ScaleAdd@aos@shdfnd@physx@@YA?AT__m128@@T5@00@Z@4_NA 0000000180081b01     ConvexHullUtils.obj
 0003:00000b02       ?_ignore@?2??V3NegScaleSub@aos@shdfnd@physx@@YA?AT__m128@@T5@00@Z@4_NA 0000000180081b02     ConvexHullUtils.obj
 0003:00000b03       ?_ignore@?3??V3NegScaleSub@aos@shdfnd@physx@@YA?AT__m128@@T5@00@Z@4_NA 0000000180081b03     ConvexHullUtils.obj
 0003:00000b04       ?_ignore@?4??V3NegScaleSub@aos@shdfnd@physx@@YA?AT__m128@@T5@00@Z@4_NA 0000000180081b04     ConvexHullUtils.obj
 0003:00000b05       ?_ignore@?2??V3Cross@aos@shdfnd@physx@@YA?AT__m128@@T5@0@Z@4_NA 0000000180081b05     ConvexHullUtils.obj
 0003:00000b06       ?_ignore@?3??V3Cross@aos@shdfnd@physx@@YA?AT__m128@@T5@0@Z@4_NA 0000000180081b06     ConvexHullUtils.obj
 0003:00000b19       ?_ignore@?2???A?$Array@VHalfEdge@ConvexHull@physx@@VNamedAllocator@shdfnd@3@@shdfnd@physx@@QEAAAEAVHalfEdge@ConvexHull@3@I@Z@4_NA 0000000180081b19     ConvexHullUtils.obj
 0003:00000b1a       ?_ignore@?2???A?$Array@VHalfEdge@ConvexHull@physx@@VNamedAllocator@shdfnd@3@@shdfnd@physx@@QEBAAEBVHalfEdge@ConvexHull@3@I@Z@4_NA 0000000180081b1a     ConvexHullUtils.obj
 0003:00000b1b       ?_ignore@?2???A?$Array@VPxVec3@physx@@VNamedAllocator@shdfnd@2@@shdfnd@physx@@QEAAAEAVPxVec3@3@I@Z@4_NA 0000000180081b1b     ConvexHullUtils.obj
 0003:00000b1c       ?_ignore@?2???A?$Array@VPxVec3@physx@@VNamedAllocator@shdfnd@2@@shdfnd@physx@@QEBAAEBVPxVec3@3@I@Z@4_NA 0000000180081b1c     ConvexHullUtils.obj
 0003:00000b1d       ?_ignore@?2???A?$Array@VPxPlane@physx@@VNamedAllocator@shdfnd@2@@shdfnd@physx@@QEBAAEBVPxPlane@3@I@Z@4_NA 0000000180081b1d     ConvexHullUtils.obj
 0003:00000b1e       ?_ignore@?2??growAndPushBack@?$Array@VPxPlane@physx@@VNamedAllocator@shdfnd@2@@shdfnd@physx@@IEAAAEAVPxPlane@4@AEBV54@@Z@4_NA 0000000180081b1e     ConvexHullUtils.obj
 0003:00000b1f       ?_ignore@?2??growAndPushBack@?$Array@VHalfEdge@ConvexHull@physx@@VNamedAllocator@shdfnd@3@@shdfnd@physx@@IEAAAEAVHalfEdge@ConvexHull@4@AEBV564@@Z@4_NA 0000000180081b1f     ConvexHullUtils.obj
 0003:00000b20       ?_ignore@?2??grow@?$Array@VHalfEdge@ConvexHull@physx@@VNamedAllocator@shdfnd@3@@shdfnd@physx@@IEAAXI@Z@4_NA 0000000180081b20     ConvexHullUtils.obj
 0003:00000b21       ?_ignore@?2??grow@?$Array@VPxPlane@physx@@VNamedAllocator@shdfnd@2@@shdfnd@physx@@IEAAXI@Z@4_NA 0000000180081b21     ConvexHullUtils.obj
 0003:00000b22       ?_ignore@?2??recreate@?$Array@VPxPlane@physx@@VNamedAllocator@shdfnd@2@@shdfnd@physx@@IEAAXI@Z@4_NA 0000000180081b22     ConvexHullUtils.obj
 0003:00000b23       ?_ignore@?2??recreate@?$Array@VHalfEdge@ConvexHull@physx@@VNamedAllocator@shdfnd@3@@shdfnd@physx@@IEAAXI@Z@4_NA 0000000180081b23     ConvexHullUtils.obj
 0003:00000b24       ?_ignore@?2??getExtents@PxBounds3@physx@@QEBA?AVPxVec3@3@XZ@4_NA 0000000180081b24     ConvexMeshBuilder.obj
 0003:00000bb6       ?_ignore@?2??remove@?$Array@VPair@@VNamedAllocator@shdfnd@physx@@@shdfnd@physx@@QEAAXI@Z@4_NA 0000000180081bb6     ConvexPolygonsBuilder.obj
 0003:00000bb7       ?_ignore@?2???A?$Array@VPair@@VNamedAllocator@shdfnd@physx@@@shdfnd@physx@@QEAAAEAVPair@@I@Z@4_NA 0000000180081bb7     ConvexPolygonsBuilder.obj
 0003:00000bb8       ?_ignore@?2??forceSize_Unsafe@?$Array@IVNamedAllocator@shdfnd@physx@@@shdfnd@physx@@QEAAXI@Z@4_NA 0000000180081bb8     ConvexPolygonsBuilder.obj
 0003:00000bb9       ?_ignore@?2??remove@?$Array@IVNamedAllocator@shdfnd@physx@@@shdfnd@physx@@QEAAXI@Z@4_NA 0000000180081bb9     ConvexPolygonsBuilder.obj
 0003:00000bba       ?_ignore@?2??growAndPushBack@?$Array@VPair@@VNamedAllocator@shdfnd@physx@@@shdfnd@physx@@IEAAAEAVPair@@AEBV5@@Z@4_NA 0000000180081bba     ConvexPolygonsBuilder.obj
 0003:00000bbb       ?_ignore@?2??to8@shdfnd@physx@@YAEH@Z@4_NA 0000000180081bbb     InflationConvexHullLib.obj
 0003:00000bbc       ?_ignore@?3??to8@shdfnd@physx@@YAEH@Z@4_NA 0000000180081bbc     InflationConvexHullLib.obj
 0003:00000bc2       ?_ignore@?8??neib@Tri@local@@QEAAAEAHHH@Z@4_NA 0000000180081bc2     InflationConvexHullLib.obj
 0003:00000bc3       ?_ignore@?2??deleteTri@HullTriangles@local@@QEAAXPEAVTri@3@@Z@4_NA 0000000180081bc3     InflationConvexHullLib.obj
 0003:00000bc4       ?_ignore@?2??checkit@HullTriangles@local@@QEBAXPEAVTri@3@@Z@4_NA 0000000180081bc4     InflationConvexHullLib.obj
 0003:00000bc5       ?_ignore@?5??checkit@HullTriangles@local@@QEBAXPEAVTri@3@@Z@4_NA 0000000180081bc5     InflationConvexHullLib.obj
 0003:00000bc6       ?_ignore@?6??checkit@HullTriangles@local@@QEBAXPEAVTri@3@@Z@4_NA 0000000180081bc6     InflationConvexHullLib.obj
 0003:00000bc7       ?_ignore@?4??b2bfix@HullTriangles@local@@IEAAXPEAVTri@3@0@Z@4_NA 0000000180081bc7     InflationConvexHullLib.obj
 0003:00000bc8       ?_ignore@?5??b2bfix@HullTriangles@local@@IEAAXPEAVTri@3@0@Z@4_NA 0000000180081bc8     InflationConvexHullLib.obj
 0003:00000bd3       ?_ignore@?9??PlaneCheck@LocalTests@?1??expandHull@InflationConvexHullLib@physx@@IEAA?AW4ErrorCode@ConvexHullLibResult@5@PEBVPxVec3@5@IAEBVHullTriangles@local@@AEAPEAVConvexHull@5@@Z@SA_N0IAEAV?$Array@UExpandPlane@local@@VNamedAllocator@shdfnd@physx@@@shdfnd@5@@Z@4_NA 0000000180081bd3     InflationConvexHullLib.obj
 0003:00000bdc       ?_ignore@?2???A?$Array@HVNamedAllocator@shdfnd@physx@@@shdfnd@physx@@QEAAAEAHI@Z@4_NA 0000000180081bdc     InflationConvexHullLib.obj
 0003:00000bdd       ?_ignore@?2???A?$Array@UExpandPlane@local@@VNamedAllocator@shdfnd@physx@@@shdfnd@physx@@QEAAAEAUExpandPlane@local@@I@Z@4_NA 0000000180081bdd     InflationConvexHullLib.obj
 0003:00000bde       ?_ignore@?2???A?$Array@PEAVTri@local@@VNamedAllocator@shdfnd@physx@@@shdfnd@physx@@QEAAAEAPEAVTri@local@@I@Z@4_NA 0000000180081bde     InflationConvexHullLib.obj
 0003:00000bdf       ?_ignore@?2???A?$Array@PEAVTri@local@@VNamedAllocator@shdfnd@physx@@@shdfnd@physx@@QEBAAEBQEAVTri@local@@I@Z@4_NA 0000000180081bdf     InflationConvexHullLib.obj
 0003:00000be0       ?_ignore@?2???A?$Array@EVNamedAllocator@shdfnd@physx@@@shdfnd@physx@@QEAAAEAEI@Z@4_NA 0000000180081be0     InflationConvexHullLib.obj
 0003:00000be1       ?_ignore@?2???A?$Array@VPxPlane@physx@@VNamedAllocator@shdfnd@2@@shdfnd@physx@@QEAAAEAVPxPlane@3@I@Z@4_NA 0000000180081be1     InflationConvexHullLib.obj
 0003:00000be2       ?_ignore@?2??grow@?$Array@PEAVTri@local@@VNamedAllocator@shdfnd@physx@@@shdfnd@physx@@IEAAXI@Z@4_NA 0000000180081be2     InflationConvexHullLib.obj
 0003:00000be3       ?_ignore@?2??grow@?$Array@EVNamedAllocator@shdfnd@physx@@@shdfnd@physx@@IEAAXI@Z@4_NA 0000000180081be3     InflationConvexHullLib.obj
 0003:00000be4       ?_ignore@?2??growAndPushBack@?$Array@EVNamedAllocator@shdfnd@physx@@@shdfnd@physx@@IEAAAEAEAEBE@Z@4_NA 0000000180081be4     InflationConvexHullLib.obj
 0003:00000be5       ?_ignore@?2??recreate@?$Array@EVNamedAllocator@shdfnd@physx@@@shdfnd@physx@@IEAAXI@Z@4_NA 0000000180081be5     InflationConvexHullLib.obj
 0003:00000be6       ?_ignore@?2??growAndPushBack@?$Array@PEAVTri@local@@VNamedAllocator@shdfnd@physx@@@shdfnd@physx@@IEAAAEAPEAVTri@local@@AEBQEAV56@@Z@4_NA 0000000180081be6     InflationConvexHullLib.obj
 0003:00000be7       ?_ignore@?2??recreate@?$Array@PEAVTri@local@@VNamedAllocator@shdfnd@physx@@@shdfnd@physx@@IEAAXI@Z@4_NA 0000000180081be7     InflationConvexHullLib.obj
 0003:00000be8       ?_ignore@?2??growAndPushBack@?$Array@UExpandPlane@local@@VNamedAllocator@shdfnd@physx@@@shdfnd@physx@@IEAAAEAUExpandPlane@local@@AEBU56@@Z@4_NA 0000000180081be8     InflationConvexHullLib.obj
 0003:00000be9       ?_ignore@?2??growAndPushBack@?$Array@HVNamedAllocator@shdfnd@physx@@@shdfnd@physx@@IEAAAEAHAEBH@Z@4_NA 0000000180081be9     InflationConvexHullLib.obj
 0003:00000bea       ?_ignore@?2??grow@?$Array@HVNamedAllocator@shdfnd@physx@@@shdfnd@physx@@IEAAXI@Z@4_NA 0000000180081bea     InflationConvexHullLib.obj
 0003:00000beb       ?_ignore@?2??recreate@?$Array@HVNamedAllocator@shdfnd@physx@@@shdfnd@physx@@IEAAXI@Z@4_NA 0000000180081beb     InflationConvexHullLib.obj
 0003:00000bf0       ?_ignore@?2??getHead@QuickHullHalfEdge@local@@QEBAAEBUQuickHullVertex@3@XZ@4_NA 0000000180081bf0     QuickHullConvexHullLib.obj
 0003:00000bf1       ?_ignore@?2??computeNormalAndCentroid@QuickHullFace@local@@QEAAXXZ@4_NA 0000000180081bf1     QuickHullConvexHullLib.obj
 0003:00000bf2       ?_ignore@?8??computeNormalAndCentroid@QuickHullFace@local@@QEAAXXZ@4_NA 0000000180081bf2     QuickHullConvexHullLib.obj
 0003:00000c12       ?_ignore@?2???A?$Array@UExpandPoint@local@@VNamedAllocator@shdfnd@physx@@@shdfnd@physx@@QEAAAEAUExpandPoint@local@@I@Z@4_NA 0000000180081c12     QuickHullConvexHullLib.obj
 0003:00000c13       ?_ignore@?2???A?$Array@IVNamedAllocator@shdfnd@physx@@@shdfnd@physx@@QEBAAEBII@Z@4_NA 0000000180081c13     QuickHullConvexHullLib.obj
 0003:00000c14       ?_ignore@?2??getFreeItem@?$MemBlock@UQuickHullFace@local@@$00@local@@QEAAPEAUQuickHullFace@3@XZ@4_NA 0000000180081c14     QuickHullConvexHullLib.obj
 0003:00000c15       ?_ignore@?2??getItem@?$MemBlock@UQuickHullFace@local@@$00@local@@QEAAPEAUQuickHullFace@3@I@Z@4_NA 0000000180081c15     QuickHullConvexHullLib.obj
 0003:00000c16       ?_ignore@?3??getItem@?$MemBlock@UQuickHullFace@local@@$00@local@@QEAAPEAUQuickHullFace@3@I@Z@4_NA 0000000180081c16     QuickHullConvexHullLib.obj
 0003:00000c17       ?_ignore@?2??init@?$MemBlock@UQuickHullFace@local@@$00@local@@QEAAXI@Z@4_NA 0000000180081c17     QuickHullConvexHullLib.obj
 0003:00000c18       ?_ignore@?2??getFreeItem@?$MemBlock@UQuickHullHalfEdge@local@@$0A@@local@@QEAAPEAUQuickHullHalfEdge@3@XZ@4_NA 0000000180081c18     QuickHullConvexHullLib.obj
 0003:00000c19       ?_ignore@?2??init@?$MemBlock@UQuickHullHalfEdge@local@@$0A@@local@@QEAAXI@Z@4_NA 0000000180081c19     QuickHullConvexHullLib.obj
 0003:00000c1a       ?_ignore@?2???A?$Array@PEAUQuickHullFace@local@@VNamedAllocator@shdfnd@physx@@@shdfnd@physx@@QEAAAEAPEAUQuickHullFace@local@@I@Z@4_NA 0000000180081c1a     QuickHullConvexHullLib.obj
 0003:00000c1b       ?_ignore@?2???A?$Array@PEAUQuickHullFace@local@@VNamedAllocator@shdfnd@physx@@@shdfnd@physx@@QEBAAEBQEAUQuickHullFace@local@@I@Z@4_NA 0000000180081c1b     QuickHullConvexHullLib.obj
 0003:00000c1c       ?_ignore@?2???A?$Array@PEAUQuickHullHalfEdge@local@@VNamedAllocator@shdfnd@physx@@@shdfnd@physx@@QEBAAEBQEAUQuickHullHalfEdge@local@@I@Z@4_NA 0000000180081c1c     QuickHullConvexHullLib.obj
 0003:00000c1d       ?_ignore@?2???A?$Array@PEAUQuickHullVertex@local@@VNamedAllocator@shdfnd@physx@@@shdfnd@physx@@QEAAAEAPEAUQuickHullVertex@local@@I@Z@4_NA 0000000180081c1d     QuickHullConvexHullLib.obj
 0003:00000c1e       ?_ignore@?2??grow@?$Array@UExpandPoint@local@@VNamedAllocator@shdfnd@physx@@@shdfnd@physx@@IEAAXI@Z@4_NA 0000000180081c1e     QuickHullConvexHullLib.obj
 0003:00000c1f       ?_ignore@?2??grow@?$Array@PEAUQuickHullFace@local@@VNamedAllocator@shdfnd@physx@@@shdfnd@physx@@IEAAXI@Z@4_NA 0000000180081c1f     QuickHullConvexHullLib.obj
 0003:00000c20       ?_ignore@?2??grow@?$Array@PEAUQuickHullHalfEdge@local@@VNamedAllocator@shdfnd@physx@@@shdfnd@physx@@IEAAXI@Z@4_NA 0000000180081c20     QuickHullConvexHullLib.obj
 0003:00000c21       ?_ignore@?2???A?$Array@PEAUQuickHullHalfEdge@local@@VNamedAllocator@shdfnd@physx@@@shdfnd@physx@@QEAAAEAPEAUQuickHullHalfEdge@local@@I@Z@4_NA 0000000180081c21     QuickHullConvexHullLib.obj
 0003:00000c22       ?_ignore@?2??grow@?$Array@PEAUQuickHullVertex@local@@VNamedAllocator@shdfnd@physx@@@shdfnd@physx@@IEAAXI@Z@4_NA 0000000180081c22     QuickHullConvexHullLib.obj
 0003:00000c23       ?_ignore@?2??growAndPushBack@?$Array@PEAUQuickHullVertex@local@@VNamedAllocator@shdfnd@physx@@@shdfnd@physx@@IEAAAEAPEAUQuickHullVertex@local@@AEBQEAU56@@Z@4_NA 0000000180081c23     QuickHullConvexHullLib.obj
 0003:00000c24       ?_ignore@?2??recreate@?$Array@PEAUQuickHullVertex@local@@VNamedAllocator@shdfnd@physx@@@shdfnd@physx@@IEAAXI@Z@4_NA 0000000180081c24     QuickHullConvexHullLib.obj
 0003:00000c25       ?_ignore@?2??growAndPushBack@?$Array@PEAUQuickHullHalfEdge@local@@VNamedAllocator@shdfnd@physx@@@shdfnd@physx@@IEAAAEAPEAUQuickHullHalfEdge@local@@AEBQEAU56@@Z@4_NA 0000000180081c25     QuickHullConvexHullLib.obj
 0003:00000c26       ?_ignore@?2??recreate@?$Array@PEAUQuickHullHalfEdge@local@@VNamedAllocator@shdfnd@physx@@@shdfnd@physx@@IEAAXI@Z@4_NA 0000000180081c26     QuickHullConvexHullLib.obj
 0003:00000c27       ?_ignore@?2??growAndPushBack@?$Array@PEAUQuickHullFace@local@@VNamedAllocator@shdfnd@physx@@@shdfnd@physx@@IEAAAEAPEAUQuickHullFace@local@@AEBQEAU56@@Z@4_NA 0000000180081c27     QuickHullConvexHullLib.obj
 0003:00000c28       ?_ignore@?2??recreate@?$Array@PEAUQuickHullFace@local@@VNamedAllocator@shdfnd@physx@@@shdfnd@physx@@IEAAXI@Z@4_NA 0000000180081c28     QuickHullConvexHullLib.obj
 0003:00000c29       ?_ignore@?2??growAndPushBack@?$Array@UExpandPoint@local@@VNamedAllocator@shdfnd@physx@@@shdfnd@physx@@IEAAAEAUExpandPoint@local@@AEBU56@@Z@4_NA 0000000180081c29     QuickHullConvexHullLib.obj
 0003:00000c2a       ?_ignore@?2??recreate@?$Array@UExpandPoint@local@@VNamedAllocator@shdfnd@physx@@@shdfnd@physx@@IEAAXI@Z@4_NA 0000000180081c2a     QuickHullConvexHullLib.obj
 0003:00000ca3       ?_ignore@?2??FAllGrtr@aos@shdfnd@physx@@YAIT__m128@@0@Z@4_NA 0000000180081ca3     VolumeIntegration.obj
 0003:00000ca4       ?_ignore@?3??FAllGrtr@aos@shdfnd@physx@@YAIT__m128@@0@Z@4_NA 0000000180081ca4     VolumeIntegration.obj
 0003:00000ca5       ?_ignore@?2??V4ScaleInv@aos@shdfnd@physx@@YA?AT__m128@@T5@0@Z@4_NA 0000000180081ca5     VolumeIntegration.obj
 0003:00000d2e       ?_ignore@?P@???$kmeans_cluster@VPxVec3@physx@@M@@YAIPEBVPxVec3@physx@@IIPEAV12@PEAIMM@Z@4_NA 0000000180081d2e     Quantizer.obj
 0003:00000d30       __hmod__PxFoundationDEBUG_x64_dll 0000000180081d30     PxFoundationDEBUG_x64:PxFoundationDEBUG_x64.dll
 0003:00000d38       __hmod__PhysX3CommonDEBUG_x64_dll 0000000180081d38     PhysX3CommonDEBUG_x64:PhysX3CommonDEBUG_x64.dll
 0003:00000d40       ?DloadKernel32@@3PEAUHINSTANCE__@@EA 0000000180081d40     delayimp:delayhlp.obj
 0003:00000d48       ?DloadAcquireSRWLockExclusive@@3P6AXPEA_K@ZEA 0000000180081d48     delayimp:delayhlp.obj
 0003:00000d50       ?DloadReleaseSRWLockExclusive@@3P6AXPEA_K@ZEA 0000000180081d50     delayimp:delayhlp.obj
 0003:00000d58       ?DloadSrwLock@@3_KA        0000000180081d58     delayimp:delayhlp.obj
 0003:00000d60       ?DloadSectionLockCount@@3KA 0000000180081d60     delayimp:delayhlp.obj
 0003:00000d64       ?DloadSectionOldProtection@@3KA 0000000180081d64     delayimp:delayhlp.obj
 0003:00000d68       ?DloadSectionCommitPermanent@@3KA 0000000180081d68     delayimp:delayhlp.obj
 0003:00000d80       ?__type_info_root_node@@3U__type_info_node@@A 0000000180081d80     MSVCRTD:tncleanup.obj
 0003:00000db0       ?_OptionsStorage@?1??__local_stdio_printf_options@@9@4_KA 0000000180081db0     MSVCRTD:default_local_stdio_options.obj
 0003:00000dc0       ?_OptionsStorage@?1??__local_stdio_scanf_options@@9@4_KA 0000000180081dc0     MSVCRTD:default_local_stdio_options.obj
 0003:00000dd0       __scrt_current_native_startup_state 0000000180081dd0     MSVCRTD:utility.obj
 0003:00000dd8       __scrt_native_startup_lock 0000000180081dd8     MSVCRTD:utility.obj
 0003:00000e20       __scrt_debugger_hook_flag  0000000180081e20     MSVCRTD:utility_desktop.obj
 0003:00000e24       __favor                    0000000180081e24     MSVCRTD:_cpu_disp_.obj
 0003:000014c8       __dyn_tls_init_callback    00000001800824c8     <common>
 0005:00000000       __imp_LoadLibraryA         0000000180087000     kernel32:KERNEL32.dll
 0005:00000008       __imp_GetCurrentProcess    0000000180087008     kernel32:KERNEL32.dll
 0005:00000010       __imp_GetProcessHeap       0000000180087010     kernel32:KERNEL32.dll
 0005:00000018       __imp_HeapFree             0000000180087018     kernel32:KERNEL32.dll
 0005:00000020       __imp_HeapAlloc            0000000180087020     kernel32:KERNEL32.dll
 0005:00000028       __imp_WideCharToMultiByte  0000000180087028     kernel32:KERNEL32.dll
 0005:00000030       __imp_MultiByteToWideChar  0000000180087030     kernel32:KERNEL32.dll
 0005:00000038       __imp_IsProcessorFeaturePresent 0000000180087038     kernel32:KERNEL32.dll
 0005:00000040       __imp_GetStartupInfoW      0000000180087040     kernel32:KERNEL32.dll
 0005:00000048       __imp_SetUnhandledExceptionFilter 0000000180087048     kernel32:KERNEL32.dll
 0005:00000050       __imp_UnhandledExceptionFilter 0000000180087050     kernel32:KERNEL32.dll
 0005:00000058       __imp_IsDebuggerPresent    0000000180087058     kernel32:KERNEL32.dll
 0005:00000060       __imp_RtlVirtualUnwind     0000000180087060     kernel32:KERNEL32.dll
 0005:00000068       __imp_RtlLookupFunctionEntry 0000000180087068     kernel32:KERNEL32.dll
 0005:00000070       __imp_RtlCaptureContext    0000000180087070     kernel32:KERNEL32.dll
 0005:00000078       __imp_DisableThreadLibraryCalls 0000000180087078     kernel32:KERNEL32.dll
 0005:00000080       __imp_GetSystemTimeAsFileTime 0000000180087080     kernel32:KERNEL32.dll
 0005:00000088       __imp_GetCurrentThreadId   0000000180087088     kernel32:KERNEL32.dll
 0005:00000090       __imp_GetCurrentProcessId  0000000180087090     kernel32:KERNEL32.dll
 0005:00000098       __imp_QueryPerformanceCounter 0000000180087098     kernel32:KERNEL32.dll
 0005:000000a0       __imp_InitializeSListHead  00000001800870a0     kernel32:KERNEL32.dll
 0005:000000a8       __imp_LoadLibraryExA       00000001800870a8     kernel32:KERNEL32.dll
 0005:000000b0       __imp_GetProcAddress       00000001800870b0     kernel32:KERNEL32.dll
 0005:000000b8       __imp_GetModuleHandleW     00000001800870b8     kernel32:KERNEL32.dll
 0005:000000c0       __imp_FreeLibrary          00000001800870c0     kernel32:KERNEL32.dll
 0005:000000c8       __imp_VirtualQuery         00000001800870c8     kernel32:KERNEL32.dll
 0005:000000d0       __imp_VirtualProtect       00000001800870d0     kernel32:KERNEL32.dll
 0005:000000d8       __imp_GetSystemInfo        00000001800870d8     kernel32:KERNEL32.dll
 0005:000000e0       __imp_GetLastError         00000001800870e0     kernel32:KERNEL32.dll
 0005:000000e8       __imp_RaiseException       00000001800870e8     kernel32:KERNEL32.dll
 0005:000000f0       __imp_TerminateProcess     00000001800870f0     kernel32:KERNEL32.dll
 0005:000000f8       \177KERNEL32_NULL_THUNK_DATA 00000001800870f8     kernel32:KERNEL32.dll
 0005:00000180       __imp_memset               0000000180087180     vcruntimed:VCRUNTIME140D.dll
 0005:00000188       __imp_memcmp               0000000180087188     vcruntimed:VCRUNTIME140D.dll
 0005:00000190       __imp__purecall            0000000180087190     vcruntimed:VCRUNTIME140D.dll
 0005:00000198       __imp___std_type_info_name 0000000180087198     vcruntimed:VCRUNTIME140D.dll
 0005:000001a0       __imp_memmove              00000001800871a0     vcruntimed:VCRUNTIME140D.dll
 0005:000001a8       __imp___std_type_info_destroy_list 00000001800871a8     vcruntimed:VCRUNTIME140D.dll
 0005:000001b0       __imp___C_specific_handler 00000001800871b0     vcruntimed:VCRUNTIME140D.dll
 0005:000001b8       __imp___std_exception_copy 00000001800871b8     vcruntimed:VCRUNTIME140D.dll
 0005:000001c0       __imp___std_exception_destroy 00000001800871c0     vcruntimed:VCRUNTIME140D.dll
 0005:000001c8       __imp__CxxThrowException   00000001800871c8     vcruntimed:VCRUNTIME140D.dll
 0005:000001d0       __imp___vcrt_GetModuleFileNameW 00000001800871d0     vcruntimed:VCRUNTIME140D.dll
 0005:000001d8       __imp___vcrt_GetModuleHandleW 00000001800871d8     vcruntimed:VCRUNTIME140D.dll
 0005:000001e0       __imp___vcrt_LoadLibraryExW 00000001800871e0     vcruntimed:VCRUNTIME140D.dll
 0005:000001e8       __imp_memcpy               00000001800871e8     vcruntimed:VCRUNTIME140D.dll
 0005:000001f0       __imp_strstr               00000001800871f0     vcruntimed:VCRUNTIME140D.dll
 0005:000001f8       \177VCRUNTIME140D_NULL_THUNK_DATA 00000001800871f8     vcruntimed:VCRUNTIME140D.dll
 0005:00000268       __imp__wsplitpath_s        0000000180087268     ucrtd:ucrtbased.dll
 0005:00000270       __imp_wcscpy_s             0000000180087270     ucrtd:ucrtbased.dll
 0005:00000278       __imp___stdio_common_vsprintf_s 0000000180087278     ucrtd:ucrtbased.dll
 0005:00000280       __imp__initterm            0000000180087280     ucrtd:ucrtbased.dll
 0005:00000288       __imp__CrtDbgReportW       0000000180087288     ucrtd:ucrtbased.dll
 0005:00000290       __imp__CrtDbgReport        0000000180087290     ucrtd:ucrtbased.dll
 0005:00000298       __imp_strcat_s             0000000180087298     ucrtd:ucrtbased.dll
 0005:000002a0       __imp_atan2f               00000001800872a0     ucrtd:ucrtbased.dll
 0005:000002a8       __imp_sinf                 00000001800872a8     ucrtd:ucrtbased.dll
 0005:000002b0       __imp_cosf                 00000001800872b0     ucrtd:ucrtbased.dll
 0005:000002b8       __imp_sqrtf                00000001800872b8     ucrtd:ucrtbased.dll
 0005:000002c0       __imp_powf                 00000001800872c0     ucrtd:ucrtbased.dll
 0005:000002c8       __imp__fpclass             00000001800872c8     ucrtd:ucrtbased.dll
 0005:000002d0       __imp_fabs                 00000001800872d0     ucrtd:ucrtbased.dll
 0005:000002d8       __imp_abs                  00000001800872d8     ucrtd:ucrtbased.dll
 0005:000002e0       __imp__wmakepath_s         00000001800872e0     ucrtd:ucrtbased.dll
 0005:000002e8       __imp_strcpy_s             00000001800872e8     ucrtd:ucrtbased.dll
 0005:000002f0       __imp_terminate            00000001800872f0     ucrtd:ucrtbased.dll
 0005:000002f8       __imp__cexit               00000001800872f8     ucrtd:ucrtbased.dll
 0005:00000300       __imp__crt_at_quick_exit   0000000180087300     ucrtd:ucrtbased.dll
 0005:00000308       __imp__initterm_e          0000000180087308     ucrtd:ucrtbased.dll
 0005:00000310       __imp__execute_onexit_table 0000000180087310     ucrtd:ucrtbased.dll
 0005:00000318       __imp__register_onexit_function 0000000180087318     ucrtd:ucrtbased.dll
 0005:00000320       __imp__initialize_onexit_table 0000000180087320     ucrtd:ucrtbased.dll
 0005:00000328       __imp__initialize_narrow_environment 0000000180087328     ucrtd:ucrtbased.dll
 0005:00000330       __imp__configure_narrow_argv 0000000180087330     ucrtd:ucrtbased.dll
 0005:00000338       __imp__seh_filter_dll      0000000180087338     ucrtd:ucrtbased.dll
 0005:00000340       __imp__free_dbg            0000000180087340     ucrtd:ucrtbased.dll
 0005:00000348       __imp_malloc               0000000180087348     ucrtd:ucrtbased.dll
 0005:00000350       __imp_floorf               0000000180087350     ucrtd:ucrtbased.dll
 0005:00000358       __imp__callnewh            0000000180087358     ucrtd:ucrtbased.dll
 0005:00000360       __imp__crt_atexit          0000000180087360     ucrtd:ucrtbased.dll
 0005:00000368       \177ucrtbased_NULL_THUNK_DATA 0000000180087368     ucrtd:ucrtbased.dll
 0005:000003f0       __IMPORT_DESCRIPTOR_KERNEL32 00000001800873f0     kernel32:KERNEL32.dll
 0005:00000404       __IMPORT_DESCRIPTOR_VCRUNTIME140D 0000000180087404     vcruntimed:VCRUNTIME140D.dll
 0005:00000418       __IMPORT_DESCRIPTOR_ucrtbased 0000000180087418     ucrtd:ucrtbased.dll
 0005:0000042c       __NULL_IMPORT_DESCRIPTOR   000000018008742c     kernel32:KERNEL32.dll
 0006:00000000       __DELAY_IMPORT_DESCRIPTOR_PxFoundationDEBUG_x64_dll 0000000180088000     PxFoundationDEBUG_x64:PxFoundationDEBUG_x64.dll
 0006:00000020       __DELAY_IMPORT_DESCRIPTOR_PhysX3CommonDEBUG_x64_dll 0000000180088020     PhysX3CommonDEBUG_x64:PhysX3CommonDEBUG_x64.dll
 0006:00000040       __NULL_DELAY_IMPORT_DESCRIPTOR 0000000180088040     PxFoundationDEBUG_x64:PxFoundationDEBUG_x64.dll
 0006:00000178       \177PhysX3CommonDEBUG_x64_NULL_THUNK_DATA_DLN 0000000180088178     PhysX3CommonDEBUG_x64:PhysX3CommonDEBUG_x64.dll
 0006:00000290       \177PxFoundationDEBUG_x64_NULL_THUNK_DATA_DLN 0000000180088290     PxFoundationDEBUG_x64:PxFoundationDEBUG_x64.dll
 0006:00000300       __imp_??1BV4Tree@Gu@physx@@QEAA@XZ 0000000180088300     PhysX3CommonDEBUG_x64:PhysX3CommonDEBUG_x64.dll
 0006:00000308       __imp_?releaseMemory@HeightField@Gu@physx@@QEAAXXZ 0000000180088308     PhysX3CommonDEBUG_x64:PhysX3CommonDEBUG_x64.dll
 0006:00000310       __imp_?loadFromDesc@HeightField@Gu@physx@@QEAA_NAEBVPxHeightFieldDesc@3@@Z 0000000180088310     PhysX3CommonDEBUG_x64:PhysX3CommonDEBUG_x64.dll
 0006:00000318       __imp_??0HeightField@Gu@physx@@QEAA@PEAVGuMeshFactory@2@@Z 0000000180088318     PhysX3CommonDEBUG_x64:PhysX3CommonDEBUG_x64.dll
 0006:00000320       __imp_?ReadHeader@Gu@physx@@YA_NEEEEAEAIAEA_NAEAVPxInputStream@2@@Z 0000000180088320     PhysX3CommonDEBUG_x64:PhysX3CommonDEBUG_x64.dll
 0006:00000328       __imp_?readDword@physx@@YAI_NAEAVPxInputStream@1@@Z 0000000180088328     PhysX3CommonDEBUG_x64:PhysX3CommonDEBUG_x64.dll
 0006:00000330       __imp_??1BigConvexData@physx@@QEAA@XZ 0000000180088330     PhysX3CommonDEBUG_x64:PhysX3CommonDEBUG_x64.dll
 0006:00000338       __imp_??0BigConvexData@physx@@QEAA@XZ 0000000180088338     PhysX3CommonDEBUG_x64:PhysX3CommonDEBUG_x64.dll
 0006:00000340       __imp_?computeOBBPoints@Gu@physx@@YAXPEIAVPxVec3@2@AEBV32@1111@Z 0000000180088340     PhysX3CommonDEBUG_x64:PhysX3CommonDEBUG_x64.dll
 0006:00000348       __imp_?Sort@RadixSortBuffered@Cm@physx@@QEAAAEAV123@PEBIIW4RadixHint@23@@Z 0000000180088348     PhysX3CommonDEBUG_x64:PhysX3CommonDEBUG_x64.dll
 0006:00000350       __imp_??1RadixSortBuffered@Cm@physx@@UEAA@XZ 0000000180088350     PhysX3CommonDEBUG_x64:PhysX3CommonDEBUG_x64.dll
 0006:00000358       __imp_??0RadixSortBuffered@Cm@physx@@QEAA@XZ 0000000180088358     PhysX3CommonDEBUG_x64:PhysX3CommonDEBUG_x64.dll
 0006:00000360       __imp_?GetRanks@RadixSort@Cm@physx@@QEBAPEBIXZ 0000000180088360     PhysX3CommonDEBUG_x64:PhysX3CommonDEBUG_x64.dll
 0006:00000368       __imp_?CreateOffsets@BigConvexData@physx@@IEAAXXZ 0000000180088368     PhysX3CommonDEBUG_x64:PhysX3CommonDEBUG_x64.dll
 0006:00000370       __imp_?StoreIndices@Gu@physx@@YAXGIPEBGAEAVPxOutputStream@2@_N@Z 0000000180088370     PhysX3CommonDEBUG_x64:PhysX3CommonDEBUG_x64.dll
 0006:00000378       __imp_?WriteHeader@Gu@physx@@YA_NEEEEI_NAEAVPxOutputStream@2@@Z 0000000180088378     PhysX3CommonDEBUG_x64:PhysX3CommonDEBUG_x64.dll
 0006:00000380       __imp_?computeMaxIndex@physx@@YAGPEBGI@Z 0000000180088380     PhysX3CommonDEBUG_x64:PhysX3CommonDEBUG_x64.dll
 0006:00000388       __imp_?BuildBV32Ex@Gu@physx@@YA_NAEAVBV32Tree@12@AEAVSourceMesh@12@MI@Z 0000000180088388     PhysX3CommonDEBUG_x64:PhysX3CommonDEBUG_x64.dll
 0006:00000390       __imp_?writeWord@physx@@YAXG_NAEAVPxOutputStream@1@@Z 0000000180088390     PhysX3CommonDEBUG_x64:PhysX3CommonDEBUG_x64.dll
 0006:00000398       __imp_?BuildBV4Ex@Gu@physx@@YA_NAEAVBV4Tree@12@AEAVSourceMesh@12@MI@Z 0000000180088398     PhysX3CommonDEBUG_x64:PhysX3CommonDEBUG_x64.dll
 0006:000003a0       __imp_?writeDword@physx@@YAXI_NAEAVPxOutputStream@1@@Z 00000001800883a0     PhysX3CommonDEBUG_x64:PhysX3CommonDEBUG_x64.dll
 0006:000003a8       __imp_?writeFloat@physx@@YAXM_NAEAVPxOutputStream@1@@Z 00000001800883a8     PhysX3CommonDEBUG_x64:PhysX3CommonDEBUG_x64.dll
 0006:000003b0       __imp_?writeHeader@physx@@YA_NCCCCI_NAEAVPxOutputStream@1@@Z 00000001800883b0     PhysX3CommonDEBUG_x64:PhysX3CommonDEBUG_x64.dll
 0006:000003b8       __imp_?validate@RTree@Gu@physx@@QEAAXPEAUCallbackRefit@123@@Z 00000001800883b8     PhysX3CommonDEBUG_x64:PhysX3CommonDEBUG_x64.dll
 0006:000003c0       __imp_??0SourceMesh@Gu@physx@@QEAA@XZ 00000001800883c0     PhysX3CommonDEBUG_x64:PhysX3CommonDEBUG_x64.dll
 0006:000003c8       __imp_??1SourceMesh@Gu@physx@@QEAA@XZ 00000001800883c8     PhysX3CommonDEBUG_x64:PhysX3CommonDEBUG_x64.dll
 0006:000003d0       __imp_??0BV4Tree@Gu@physx@@QEAA@XZ 00000001800883d0     PhysX3CommonDEBUG_x64:PhysX3CommonDEBUG_x64.dll
 0006:000003d8       __imp_??1HeightField@Gu@physx@@UEAA@XZ 00000001800883d8     PhysX3CommonDEBUG_x64:PhysX3CommonDEBUG_x64.dll
 0006:000003e0       __imp_??0BV32Tree@Gu@physx@@QEAA@XZ 00000001800883e0     PhysX3CommonDEBUG_x64:PhysX3CommonDEBUG_x64.dll
 0006:000003e8       __imp_??1BV32Tree@Gu@physx@@QEAA@XZ 00000001800883e8     PhysX3CommonDEBUG_x64:PhysX3CommonDEBUG_x64.dll
 0006:000003f0       __imp_?writeFloatBuffer@physx@@YAXPEBMI_NAEAVPxOutputStream@1@@Z 00000001800883f0     PhysX3CommonDEBUG_x64:PhysX3CommonDEBUG_x64.dll
 0006:000003f8       __imp_?writeWordBuffer@physx@@YAXPEBGI_NAEAVPxOutputStream@1@@Z 00000001800883f8     PhysX3CommonDEBUG_x64:PhysX3CommonDEBUG_x64.dll
 0006:00000400       __imp_?computeMaxIndex@physx@@YAIPEBII@Z 0000000180088400     PhysX3CommonDEBUG_x64:PhysX3CommonDEBUG_x64.dll
 0006:00000408       __imp_?storeIndices@physx@@YAXIIPEBIAEAVPxOutputStream@1@_N@Z 0000000180088408     PhysX3CommonDEBUG_x64:PhysX3CommonDEBUG_x64.dll
 0006:00000410       __imp_?computeBoundsAroundVertices@Gu@physx@@YAXAEAVPxBounds3@2@IPEIBVPxVec3@2@@Z 0000000180088410     PhysX3CommonDEBUG_x64:PhysX3CommonDEBUG_x64.dll
 0006:00000418       \177PhysX3CommonDEBUG_x64_NULL_THUNK_DATA_DLA 0000000180088418     PhysX3CommonDEBUG_x64:PhysX3CommonDEBUG_x64.dll
 0006:000004a8       __imp_??1FPUGuard@shdfnd@physx@@QEAA@XZ 00000001800884a8     PxFoundationDEBUG_x64:PxFoundationDEBUG_x64.dll
 0006:000004b0       __imp_??0FPUGuard@shdfnd@physx@@QEAA@XZ 00000001800884b0     PxFoundationDEBUG_x64:PxFoundationDEBUG_x64.dll
 0006:000004b8       __imp_?decRefCount@Foundation@shdfnd@physx@@SAXXZ 00000001800884b8     PxFoundationDEBUG_x64:PxFoundationDEBUG_x64.dll
 0006:000004c0       __imp_?incRefCount@Foundation@shdfnd@physx@@SAXXZ 00000001800884c0     PxFoundationDEBUG_x64:PxFoundationDEBUG_x64.dll
 0006:000004c8       __imp_?PxDiagonalize@physx@@YA?AVPxVec3@1@AEBVPxMat33@1@AEAVPxQuat@1@@Z 00000001800884c8     PxFoundationDEBUG_x64:PxFoundationDEBUG_x64.dll
 0006:000004d0       __imp_?error@Foundation@shdfnd@physx@@QEAAXW4Enum@PxErrorCode@3@PEBDH1ZZ 00000001800884d0     PxFoundationDEBUG_x64:PxFoundationDEBUG_x64.dll
 0006:000004d8       __imp_?getInstance@Foundation@shdfnd@physx@@SAAEAV123@XZ 00000001800884d8     PxFoundationDEBUG_x64:PxFoundationDEBUG_x64.dll
 0006:000004e0       __imp_PxGetFoundation      00000001800884e0     PxFoundationDEBUG_x64:PxFoundationDEBUG_x64.dll
 0006:000004e8       __imp_?deallocate@TempAllocator@shdfnd@physx@@QEAAXPEAX@Z 00000001800884e8     PxFoundationDEBUG_x64:PxFoundationDEBUG_x64.dll
 0006:000004f0       __imp_?allocate@TempAllocator@shdfnd@physx@@QEAAPEAX_KPEBDH@Z 00000001800884f0     PxFoundationDEBUG_x64:PxFoundationDEBUG_x64.dll
 0006:000004f8       __imp_?deallocate@NamedAllocator@shdfnd@physx@@QEAAXPEAX@Z 00000001800884f8     PxFoundationDEBUG_x64:PxFoundationDEBUG_x64.dll
 0006:00000500       __imp_?allocate@NamedAllocator@shdfnd@physx@@QEAAPEAX_KPEBDH@Z 0000000180088500     PxFoundationDEBUG_x64:PxFoundationDEBUG_x64.dll
 0006:00000508       __imp_??1NamedAllocator@shdfnd@physx@@QEAA@XZ 0000000180088508     PxFoundationDEBUG_x64:PxFoundationDEBUG_x64.dll
 0006:00000510       __imp_??0NamedAllocator@shdfnd@physx@@QEAA@AEBV012@@Z 0000000180088510     PxFoundationDEBUG_x64:PxFoundationDEBUG_x64.dll
 0006:00000518       __imp_??0NamedAllocator@shdfnd@physx@@QEAA@PEBD@Z 0000000180088518     PxFoundationDEBUG_x64:PxFoundationDEBUG_x64.dll
 0006:00000520       __imp_?getAllocator@shdfnd@physx@@YAAEAVPxAllocatorCallback@2@XZ 0000000180088520     PxFoundationDEBUG_x64:PxFoundationDEBUG_x64.dll
 0006:00000528       __imp_?PxGetAssertHandler@physx@@YAAEAVPxAssertHandler@1@XZ 0000000180088528     PxFoundationDEBUG_x64:PxFoundationDEBUG_x64.dll
 0006:00000530       \177PxFoundationDEBUG_x64_NULL_THUNK_DATA_DLA 0000000180088530     PxFoundationDEBUG_x64:PxFoundationDEBUG_x64.dll
 0006:000011e8       \177PxFoundationDEBUG_x64_NULL_THUNK_DATA_DLB 00000001800891e8     PxFoundationDEBUG_x64:PxFoundationDEBUG_x64.dll
 0006:00001278       \177PhysX3CommonDEBUG_x64_NULL_THUNK_DATA_DLB 0000000180089278     PhysX3CommonDEBUG_x64:PhysX3CommonDEBUG_x64.dll
 0007:00000000       __guard_check_icall_fptr   000000018008a000     MSVCRTD:guard_support.obj
 0007:00000010       __guard_dispatch_icall_fptr 000000018008a010     MSVCRTD:guard_support.obj
 0007:00000020       __guard_ss_verify_failure_fptr 000000018008a020     MSVCRTD:guard_support.obj
 0007:00000030       __guard_ss_verify_sp_fptr  000000018008a030     MSVCRTD:guard_support.obj
